(lp0
ccopy_reg
_reconstructor
p1
(csrc.fellow
Fellow
p2
c__builtin__
object
p3
Ntp4
Rp5
(dp6
S'living_space'
p7
I01
sS'uid'
p8
S'SG9'
p9
sS'firstname'
p10
S'SUNDAY'
p11
sS'lastname'
p12
S'GOODMAN'
p13
sS'is_allocated'
p14
I01
sS'assigned_room'
p15
S'CLASHY'
p16
sbag1
(csrc.staff
Staff
p17
g3
Ntp18
Rp19
(dp20
g7
I01
sg8
S'AN3'
p21
sg10
S'ANOTHONY'
p22
sg12
S'NANDAA'
p23
sg14
I01
sg15
S'CLASHY'
p24
sba.