(lp0
ccopy_reg
_reconstructor
p1
(csrc.fellow
Fellow
p2
c__builtin__
object
p3
Ntp4
Rp5
(dp6
S'living_space'
p7
I01
sS'uid'
p8
S'OS7'
p9
sS'firstname'
p10
S'OLUWAFEMI'
p11
sS'lastname'
p12
S'SULE'
p13
sS'is_allocated'
p14
I01
sS'assigned_room'
p15
VIROKO
p16
sbag1
(csrc.staff
Staff
p17
g3
Ntp18
Rp19
(dp20
g7
I00
sg8
S'DW7'
p21
sg10
S'DOMINIC'
p22
sg12
S'WALTERS'
p23
sg14
I01
sg15
VSHRUBS
p24
sbag1
(g2
g3
Ntp25
Rp26
(dp27
g7
I01
sg8
S'SP1'
p28
sg10
S'SIMON'
p29
sg12
S'PATTERSON'
p30
sg14
I01
sg15
VCEDAR
p31
sbag1
(g2
g3
Ntp32
Rp33
(dp34
g7
I01
sg8
S'ML3'
p35
sg10
S'MARI'
p36
sg12
S'LAWRENCE'
p37
sg14
I01
sg15
VIROKO
p38
sbag1
(g17
g3
Ntp39
Rp40
(dp41
g7
I00
sg8
S'LR5'
p42
sg10
S'LEIGH'
p43
sg12
S'RILEY'
p44
sg14
I01
sg15
VSHRUBS
p45
sbag1
(g2
g3
Ntp46
Rp47
(dp48
g7
I01
sg8
S'TL1'
p49
sg10
S'TANA'
p50
sg12
S'LOPEZ'
p51
sg14
I01
sg15
VIROKO
p52
sbag1
(g17
g3
Ntp53
Rp54
(dp55
g7
I00
sg8
S'KM5'
p56
sg10
S'KELLY'
p57
sg12
S'McGUIRE'
p58
sg14
I01
sg15
VSHRUBS
p59
sbag1
(g2
g3
Ntp60
Rp61
(dp62
g7
I01
sg8
S'SA9'
p63
sg10
S'SEYI'
p64
sg12
S'ADEKOYA'
p65
sg14
I01
sg15
VOCHEBE
p66
sbag1
(g2
g3
Ntp67
Rp68
(dp69
g7
I01
sg8
S'JA5'
p70
sg10
S'JOHN'
p71
sg12
S'ADEAYE'
p72
sg14
I01
sg15
VOCHEBE
p73
sbag1
(g2
g3
Ntp74
Rp75
(dp76
g12
S'SUNNI'
p77
sg15
V
p78
sg7
I00
sg8
S'JS7'
p79
sg10
S'JOHN'
p80
sbag1
(g2
g3
Ntp81
Rp82
(dp83
g12
S'ENI'
p84
sg15
g78
sg7
I00
sg8
S'LE6'
p85
sg10
S'LION'
p86
sba.