(lp0
ccopy_reg
_reconstructor
p1
(csrc.fellow
Fellow
p2
c__builtin__
object
p3
Ntp4
Rp5
(dp6
S'lastname'
p7
S'nwuguru'
p8
sS'living_space'
p9
I01
sS'firstname'
p10
S'sunday'
p11
sS'file_location'
p12
S'/Users/andela/Documents/projects/room-allocation/data/people.pkl'
p13
sbag1
(g2
g3
Ntp14
Rp15
(dp16
g7
S'nwuguru'
p17
sg9
I01
sg10
S'sunday'
p18
sg12
S'/Users/andela/Documents/projects/room-allocation/data/people.pkl'
p19
sbag1
(g2
g3
Ntp20
Rp21
(dp22
g7
S'nwuguru'
p23
sg9
I01
sg10
S'sunday'
p24
sg12
S'/Users/andela/Documents/projects/room-allocation/data/people.pkl'
p25
sbag1
(g2
g3
Ntp26
Rp27
(dp28
g7
S'nwuguru'
p29
sg9
I01
sg10
S'sunday'
p30
sg12
S'/Users/andela/Documents/projects/room-allocation/data/people.pkl'
p31
sbag1
(g2
g3
Ntp32
Rp33
(dp34
g7
S'nwuguru2'
p35
sg9
I01
sg10
S'sunday'
p36
sg12
S'/Users/andela/Documents/projects/room-allocation/data/people.pkl'
p37
sba.