(lp0
ccopy_reg
_reconstructor
p1
(csrc.fellow
Fellow
p2
c__builtin__
object
p3
Ntp4
Rp5
(dp6
S'lastname'
p7
S'nwuguru2'
p8
sS'living_space'
p9
I00
sS'firstname'
p10
S'sunday'
p11
sS'file_location'
p12
S'/Users/andela/Documents/projects/room-allocation/data/people.pkl'
p13
sbag1
(g2
g3
Ntp14
Rp15
(dp16
g7
S'nwuguru'
p17
sg9
I01
sg10
S'sunday'
p18
sg12
S'/Users/andela/Documents/projects/room-allocation/data/people.pkl'
p19
sbag1
(csrc.staff
Staff
p20
g3
Ntp21
Rp22
(dp23
g7
S'nwuguru'
p24
sg9
I01
sg10
S'sunday'
p25
sg12
S'/Users/andela/Documents/projects/room-allocation/data/people.pkl'
p26
sba.