(lp0
ccopy_reg
_reconstructor
p1
(csrc.fellow
Fellow
p2
c__builtin__
object
p3
Ntp4
Rp5
(dp6
S'living_space'
p7
I01
sS'uid'
p8
S'OS87'
p9
sS'firstname'
p10
S'OLUWAFEMI'
p11
sS'lastname'
p12
S'SULE'
p13
sS'is_allocated'
p14
I01
sS'assigned_room'
p15
(dp16
S'LIVINGSPACE'
p17
S'TESTROOM 3'
p18
sS'OFFICE'
p19
S'TESTROOM 2'
p20
ssbag1
(csrc.staff
Staff
p21
g3
Ntp22
Rp23
(dp24
g7
I00
sg8
S'DW32'
p25
sg10
S'DOMINIC'
p26
sg12
S'WALTERS'
p27
sg14
I01
sg15
(dp28
g19
g20
ssbag1
(g21
g3
Ntp29
Rp30
(dp31
g7
I00
sg8
S'SD46'
p32
sg10
S'SUN'
p33
sg12
S'DAY'
p34
sg14
I01
sS'util'
p35
g1
(csrc.util
Util
p36
g3
Ntp37
Rp38
(dp39
S'file_manager'
p40
g1
(csrc.fileman
FileMan
p41
g3
Ntp42
Rp43
(dp44
S'file_location'
p45
S'/Users/andela/Documents/projects/room-allocation/data/'
p46
sS'base'
p47
S'/Users/andela/Documents/projects/room-allocation'
p48
sbsS'db'
p49
g1
(csrc.db
Db
p50
g3
Ntp51
Rp52
(dp53
S'db_location'
p54
S'/Users/andela/Documents/projects/room-allocation/amity.db'
p55
sS'table_name'
p56
S'table_name'
p57
sS'error_message'
p58
S''
p59
sS'name'
p60
S'amity'
p61
sbsbsg15
(dp62
S'OFFICE'
p63
S'TESTROOM 2'
p64
ssbag1
(g2
g3
Ntp65
Rp66
(dp67
g7
I01
sg8
S'SD12'
p68
sg10
S'SUN2'
p69
sg12
S'DAY2'
p70
sg14
I01
sg35
g1
(g36
g3
Ntp71
Rp72
(dp73
g40
g1
(g41
g3
Ntp74
Rp75
(dp76
g45
S'/Users/andela/Documents/projects/room-allocation/data/'
p77
sg47
S'/Users/andela/Documents/projects/room-allocation'
p78
sbsg49
g1
(g50
g3
Ntp79
Rp80
(dp81
g54
S'/Users/andela/Documents/projects/room-allocation/amity.db'
p82
sg58
g59
sg56
g56
sg60
S'amity'
p83
sbsbsg15
(dp84
S'LIVINGSPACE'
p85
S'FOO'
p86
sS'OFFICE'
p87
S'TESTROOM 2'
p88
ssba.