(lp0
ccopy_reg
_reconstructor
p1
(csrc.fellow
Fellow
p2
c__builtin__
object
p3
Ntp4
Rp5
(dp6
S'date_time'
p7
V2016-04-29 18:34:22.154350
p8
sS'living_space'
p9
I00
sS'uid'
p10
S'SG88'
p11
sS'firstname'
p12
S'SUNDAY'
p13
sS'lastname'
p14
S'GOODMAN'
p15
sS'is_allocated'
p16
I00
sS'assigned_room'
p17
(dp18
sbag1
(g2
g3
Ntp19
Rp20
(dp21
g7
V2016-04-29 18:34:22.156828
p22
sg9
I01
sg10
S'SN96'
p23
sg12
S'SUNDAY'
p24
sg14
S'NAK'
p25
sg16
I01
sg17
(dp26
S'LIVINGSPACE'
p27
S'BAT'
p28
sS'OFFICE'
p29
S'CAP'
p30
ssbag1
(csrc.staff
Staff
p31
g3
Ntp32
Rp33
(dp34
g7
V2016-04-29 18:34:22.160407
p35
sg9
I00
sg10
S'SN30'
p36
sg12
S'SUNDAY'
p37
sg14
S'NAD'
p38
sg16
I01
sg17
(dp39
S'OFFICE'
p40
S'CAP'
p41
ssbag1
(g2
g3
Ntp42
Rp43
(dp44
g9
I00
sg10
S'LA56'
p45
sg12
S'LATIFA'
p46
sg14
S'AHMEND'
p47
sg16
I01
sg17
(dp48
S'LIVINGSPACE'
p49
S'BAT'
p50
sS'OFFICE'
p51
S'FLASH'
p52
ssbag1
(g2
g3
Ntp53
Rp54
(dp55
g9
I00
sg10
S'MR42'
p56
sg12
S'MONDAY'
p57
sg14
S'ROCKY'
p58
sg16
I00
sg17
(dp59
sba.