(lp0
ccopy_reg
_reconstructor
p1
(csrc.fellow
Fellow
p2
c__builtin__
object
p3
Ntp4
Rp5
(dp6
S'living_space'
p7
I01
sS'uid'
p8
S'SN1'
p9
sS'firstname'
p10
S'SUNDAY'
p11
sS'lastname'
p12
S'NWUGURU'
p13
sS'is_allocated'
p14
I01
sS'assigned_room'
p15
S'CEDAR'
p16
sbag1
(g2
g3
Ntp17
Rp18
(dp19
g12
S'GOODMAN'
p20
sg7
I00
sg8
S'SG4'
p21
sg10
S'SUNDAY'
p22
sbag1
(csrc.staff
Staff
p23
g3
Ntp24
Rp25
(dp26
g7
I00
sg8
S'AN4'
p27
sg10
S'ANTHONY'
p28
sg12
S'NANDAA'
p29
sg14
I01
sg15
S'IROKO'
p30
sba.