(lp0
ccopy_reg
_reconstructor
p1
(csrc.fellow
Fellow
p2
c__builtin__
object
p3
Ntp4
Rp5
(dp6
S'living_space'
p7
I01
sS'uid'
p8
S'OS87'
p9
sS'firstname'
p10
S'OLUWAFEMI'
p11
sS'lastname'
p12
S'SULE'
p13
sS'is_allocated'
p14
I01
sS'assigned_room'
p15
(dp16
S'LIVINGSPACE'
p17
S'TESTROOM 3'
p18
sS'OFFICE'
p19
S'TESTROOM 2'
p20
ssbag1
(csrc.staff
Staff
p21
g3
Ntp22
Rp23
(dp24
g7
I00
sg8
S'DW32'
p25
sg10
S'DOMINIC'
p26
sg12
S'WALTERS'
p27
sg14
I01
sg15
(dp28
g19
g20
ssba.