(lp0
ccopy_reg
_reconstructor
p1
(csrc.fellow
Fellow
p2
c__builtin__
object
p3
Ntp4
Rp5
(dp6
S'living_space'
p7
I01
sS'uid'
p8
S'OS3'
p9
sS'firstname'
p10
S'OLUWAFEMI'
p11
sS'lastname'
p12
S'SULE'
p13
sS'is_allocated'
p14
I01
sS'assigned_room'
p15
VIROKO
p16
sbag1
(csrc.staff
Staff
p17
g3
Ntp18
Rp19
(dp20
g7
I00
sg8
S'DW0'
p21
sg10
S'DOMINIC'
p22
sg12
S'WALTERS'
p23
sg14
I01
sg15
VSHRUBS
p24
sbag1
(g2
g3
Ntp25
Rp26
(dp27
g7
I01
sg8
S'SP2'
p28
sg10
S'SIMON'
p29
sg12
S'PATTERSON'
p30
sg14
I01
sg15
VCEDAR
p31
sbag1
(g2
g3
Ntp32
Rp33
(dp34
g7
I01
sg8
S'ML2'
p35
sg10
S'MARI'
p36
sg12
S'LAWRENCE'
p37
sg14
I01
sg15
VIROKO
p38
sbag1
(g17
g3
Ntp39
Rp40
(dp41
g7
I00
sg8
S'LR7'
p42
sg10
S'LEIGH'
p43
sg12
S'RILEY'
p44
sg14
I01
sg15
VSHRUBS
p45
sbag1
(g2
g3
Ntp46
Rp47
(dp48
g7
I01
sg8
S'TL1'
p49
sg10
S'TANA'
p50
sg12
S'LOPEZ'
p51
sg14
I01
sg15
VIROKO
p52
sbag1
(g17
g3
Ntp53
Rp54
(dp55
g7
I00
sg8
S'KM6'
p56
sg10
S'KELLY'
p57
sg12
S'McGUIRE'
p58
sg14
I01
sg15
VSHRUBS
p59
sba.