(lp0
ccopy_reg
_reconstructor
p1
(csrc.fellow
Fellow
p2
c__builtin__
object
p3
Ntp4
Rp5
(dp6
S'date_time'
p7
V2016-04-25 16:00:45.902559
p8
sS'living_space'
p9
I01
sS'uid'
p10
S'OS5'
p11
sS'firstname'
p12
S'OLUWAFEMI'
p13
sS'lastname'
p14
S'SULE'
p15
sS'is_allocated'
p16
I01
sS'assigned_room'
p17
VIROKO
p18
sbag1
(csrc.staff
Staff
p19
g3
Ntp20
Rp21
(dp22
g7
V2016-04-25 16:00:45.906811
p23
sg9
I00
sg10
S'DW9'
p24
sg12
S'DOMINIC'
p25
sg14
S'WALTERS'
p26
sg16
I01
sg17
VSHRUBS
p27
sbag1
(g2
g3
Ntp28
Rp29
(dp30
g7
V2016-04-25 16:00:45.910725
p31
sg9
I01
sg10
S'SP4'
p32
sg12
S'SIMON'
p33
sg14
S'PATTERSON'
p34
sg16
I01
sg17
VCEDAR
p35
sbag1
(g2
g3
Ntp36
Rp37
(dp38
g7
V2016-04-25 16:00:45.913320
p39
sg9
I01
sg10
S'ML2'
p40
sg12
S'MARI'
p41
sg14
S'LAWRENCE'
p42
sg16
I01
sg17
VIROKO
p43
sbag1
(g19
g3
Ntp44
Rp45
(dp46
g7
V2016-04-25 16:00:45.917463
p47
sg9
I00
sg10
S'LR3'
p48
sg12
S'LEIGH'
p49
sg14
S'RILEY'
p50
sg16
I01
sg17
VSHRUBS
p51
sbag1
(g2
g3
Ntp52
Rp53
(dp54
g7
V2016-04-25 16:00:45.921010
p55
sg9
I01
sg10
S'TL4'
p56
sg12
S'TANA'
p57
sg14
S'LOPEZ'
p58
sg16
I01
sg17
VIROKO
p59
sbag1
(g19
g3
Ntp60
Rp61
(dp62
g7
V2016-04-25 16:00:45.924922
p63
sg9
I00
sg10
S'KM3'
p64
sg12
S'KELLY'
p65
sg14
S'McGUIRE'
p66
sg16
I01
sg17
VSHRUBS
p67
sbag1
(g2
g3
Ntp68
Rp69
(dp70
g7
V2016-04-25 16:00:45.928839
p71
sg9
I01
sg10
S'SA9'
p72
sg12
S'SEYI'
p73
sg14
S'ADEKOYA'
p74
sg16
I01
sg17
VOCHEBE
p75
sbag1
(g2
g3
Ntp76
Rp77
(dp78
g7
V2016-04-25 16:00:45.932921
p79
sg9
I01
sg10
S'JA3'
p80
sg12
S'JOHN'
p81
sg14
S'ADEAYE'
p82
sg16
I01
sg17
VOCHEBE
p83
sbag1
(g2
g3
Ntp84
Rp85
(dp86
g7
V2016-04-25 16:00:45.937567
p87
sg9
I00
sg10
S'JS7'
p88
sg12
S'JOHN'
p89
sg14
S'SUNNI'
p90
sg17
V
p91
sbag1
(g2
g3
Ntp92
Rp93
(dp94
g7
V2016-04-25 16:00:45.941578
p95
sg9
I01
sg10
S'LE3'
p96
sg12
S'LION'
p97
sg14
S'ENI'
p98
sg16
I01
sg17
VCEDAR
p99
sbag1
(g2
g3
Ntp100
Rp101
(dp102
g7
V2016-04-25 16:00:45.945443
p103
sg9
I01
sg10
S'SG3'
p104
sg12
S'SUNDAY'
p105
sg14
S'GOODMAN'
p106
sg16
I01
sg17
VIROKO
p107
sbag1
(g2
g3
Ntp108
Rp109
(dp110
g14
S'GDMAN'
p111
sg9
I01
sg10
S'MG0'
p112
sg12
S'MONDAY'
p113
sbag1
(g2
g3
Ntp114
Rp115
(dp116
g14
S'GLORY'
p117
sg9
I01
sg10
S'SG4'
p118
sg12
S'SUNDAY'
p119
sbag1
(g2
g3
Ntp120
Rp121
(dp122
g14
S'GLORY2'
p123
sg9
I01
sg10
S'MG1'
p124
sg12
S'MONDAY'
p125
sbag1
(g2
g3
Ntp126
Rp127
(dp128
g9
I01
sg10
S'MG3'
p129
sg12
S'MONDAYE'
p130
sg14
S'GLORY2'
p131
sg16
I01
sg17
S'CEDAR'
p132
sba.