(lp0
ccopy_reg
_reconstructor
p1
(csrc.fellow
Fellow
p2
c__builtin__
object
p3
Ntp4
Rp5
(dp6
S'date_time'
p7
V2016-04-23 19:25:27.204860
p8
sS'living_space'
p9
I01
sS'uid'
p10
S'OS7'
p11
sS'firstname'
p12
S'OLUWAFEMI'
p13
sS'lastname'
p14
S'SULE'
p15
sS'is_allocated'
p16
I01
sS'assigned_room'
p17
VIROKO
p18
sbag1
(csrc.staff
Staff
p19
g3
Ntp20
Rp21
(dp22
g7
V2016-04-23 19:25:27.206546
p23
sg9
I00
sg10
S'DW2'
p24
sg12
S'DOMINIC'
p25
sg14
S'WALTERS'
p26
sg16
I01
sg17
VSHRUBS
p27
sbag1
(g2
g3
Ntp28
Rp29
(dp30
g7
V2016-04-23 19:25:27.207950
p31
sg9
I01
sg10
S'SP0'
p32
sg12
S'SIMON'
p33
sg14
S'PATTERSON'
p34
sg16
I01
sg17
VCEDAR
p35
sbag1
(g2
g3
Ntp36
Rp37
(dp38
g7
V2016-04-23 19:25:27.209464
p39
sg9
I01
sg10
S'ML9'
p40
sg12
S'MARI'
p41
sg14
S'LAWRENCE'
p42
sg16
I01
sg17
VIROKO
p43
sbag1
(g19
g3
Ntp44
Rp45
(dp46
g7
V2016-04-23 19:25:27.210962
p47
sg9
I00
sg10
S'LR4'
p48
sg12
S'LEIGH'
p49
sg14
S'RILEY'
p50
sg16
I01
sg17
VSHRUBS
p51
sbag1
(g2
g3
Ntp52
Rp53
(dp54
g7
V2016-04-23 19:25:27.212217
p55
sg9
I01
sg10
S'TL2'
p56
sg12
S'TANA'
p57
sg14
S'LOPEZ'
p58
sg16
I01
sg17
VIROKO
p59
sbag1
(g19
g3
Ntp60
Rp61
(dp62
g7
V2016-04-23 19:25:27.213579
p63
sg9
I00
sg10
S'KM3'
p64
sg12
S'KELLY'
p65
sg14
S'McGUIRE'
p66
sg16
I01
sg17
VSHRUBS
p67
sbag1
(g2
g3
Ntp68
Rp69
(dp70
g7
V2016-04-23 19:25:27.214909
p71
sg9
I01
sg10
S'SA1'
p72
sg12
S'SEYI'
p73
sg14
S'ADEKOYA'
p74
sg16
I01
sg17
VOCHEBE
p75
sbag1
(g2
g3
Ntp76
Rp77
(dp78
g7
V2016-04-23 19:25:27.216262
p79
sg9
I01
sg10
S'JA9'
p80
sg12
S'JOHN'
p81
sg14
S'ADEAYE'
p82
sg16
I01
sg17
VOCHEBE
p83
sbag1
(g2
g3
Ntp84
Rp85
(dp86
g7
V2016-04-23 19:25:27.218846
p87
sg9
I00
sg10
S'JS5'
p88
sg12
S'JOHN'
p89
sg14
S'SUNNI'
p90
sg17
V
p91
sbag1
(g2
g3
Ntp92
Rp93
(dp94
g7
V2016-04-23 19:25:27.220293
p95
sg9
I01
sg10
S'LE9'
p96
sg12
S'LION'
p97
sg14
S'ENI'
p98
sg16
I01
sg17
S'IROKO'
p99
sba.