(lp0
ccopy_reg
_reconstructor
p1
(csrc.fellow
Fellow
p2
c__builtin__
object
p3
Ntp4
Rp5
(dp6
S'date_time'
p7
V2016-04-30 18:31:36.063275
p8
sS'living_space'
p9
I00
sS'uid'
p10
S'SG48'
p11
sS'firstname'
p12
S'SUNDAY'
p13
sS'lastname'
p14
S'GOODMAN'
p15
sS'is_allocated'
p16
I00
sS'assigned_room'
p17
(dp18
S''
p19
g19
ssbag1
(g2
g3
Ntp20
Rp21
(dp22
g7
V2016-04-30 18:31:36.066134
p23
sg9
I01
sg10
S'SN63'
p24
sg12
S'SUNDAY'
p25
sg14
S'NAK'
p26
sg16
I01
sg17
(dp27
S'LIVINGSPACE'
p28
S'BAT'
p29
sS'OFFICE'
p30
S'CAP'
p31
ssbag1
(csrc.staff
Staff
p32
g3
Ntp33
Rp34
(dp35
g7
V2016-04-30 18:31:36.069319
p36
sg9
I00
sg10
S'SN90'
p37
sg12
S'SUNDAY'
p38
sg14
S'NAD'
p39
sg16
I01
sg17
(dp40
S'OFFICE'
p41
S'CAP'
p42
ssbag1
(g2
g3
Ntp43
Rp44
(dp45
g7
V2016-04-30 18:31:36.072712
p46
sg9
I00
sg10
S'LA13'
p47
sg12
S'LATIFA'
p48
sg14
S'AHMEND'
p49
sg16
I01
sg17
(dp50
S'LIVINGSPACE'
p51
S'BAT'
p52
sS'OFFICE'
p53
S'FLASH'
p54
ssbag1
(g2
g3
Ntp55
Rp56
(dp57
g7
V2016-04-30 18:31:36.074777
p58
sg9
I00
sg10
S'MR10'
p59
sg12
S'MONDAY'
p60
sg14
S'ROCKY'
p61
sg16
I00
sg17
(dp62
g19
g19
ssbag1
(g2
g3
Ntp63
Rp64
(dp65
g7
V2016-04-30 18:31:36.077676
p66
sg9
I00
sg10
S'MR48'
p67
sg12
S'MONDAY'
p68
sg14
S'ROCKY2'
p69
sg16
I00
sg17
(dp70
g19
g19
ssbag1
(g2
g3
Ntp71
Rp72
(dp73
g7
V2016-04-30 18:31:36.103774
p74
sg9
I01
sg10
S'MT24'
p75
sg12
S'MONDAY'
p76
sg14
S'TOCKY2'
p77
sg16
I01
sg17
(dp78
S'LIVINGSPACE'
p79
S'BAT'
p80
sS'OFFICE'
p81
S'FLASH'
p82
ssbag1
(g2
g3
Ntp83
Rp84
(dp85
g7
V2016-04-30 18:31:36.108048
p86
sg9
I00
sg10
S'MF29'
p87
sg12
S'MONDAY'
p88
sg14
S'FOCKY2'
p89
sg16
I01
sg17
(dp90
S'OFFICE'
p91
S'CAP'
p92
ssbag1
(g32
g3
Ntp93
Rp94
(dp95
g7
V2016-04-30 18:31:36.110089
p96
sg9
I00
sg10
S'FO55'
p97
sg12
S'FRIDAY'
p98
sg14
S'OPOKE'
p99
sg16
I01
sg17
(dp100
S'OFFICE'
p101
S'CAP'
p102
ssbag1
(g2
g3
Ntp103
Rp104
(dp105
g7
V2016-04-30 18:31:36.112208
p106
sg9
I01
sg10
S'JO91'
p107
sg12
S'JAME'
p108
sg14
S'OKORE'
p109
sg16
I01
sg17
(dp110
S'LIVINGSPACE'
p111
S'BAT'
p112
sS'OFFICE'
p113
S'FLASH'
p114
ssba.