(lp0
ccopy_reg
_reconstructor
p1
(csrc.fellow
Fellow
p2
c__builtin__
object
p3
Ntp4
Rp5
(dp6
S'lastname'
p7
S'Nwuguru'
p8
sS'is_allocated'
p9
I01
sS'living_space'
p10
I01
sS'uid'
p11
S'sN5'
p12
sS'firstname'
p13
S'suny'
p14
sbag1
(g2
g3
Ntp15
Rp16
(dp17
g7
S'Nwuguru'
p18
sg9
I01
sg10
I01
sg11
S'sN9'
p19
sg13
S'suny'
p20
sbag1
(csrc.staff
Staff
p21
g3
Ntp22
Rp23
(dp24
g7
S'goodman'
p25
sg9
I01
sg10
I00
sg11
S'sg7'
p26
sg13
S'sunday'
p27
sbag1
(g2
g3
Ntp28
Rp29
(dp30
g7
S'SULE'
p31
sg9
I01
sg10
I01
sg11
S'OS5'
p32
sg13
S'OLUWAFEMI'
p33
sbag1
(g21
g3
Ntp34
Rp35
(dp36
g7
S'WALTERS'
p37
sg9
I01
sg10
I00
sg11
S'DW3'
p38
sg13
S'DOMINIC'
p39
sbag1
(g2
g3
Ntp40
Rp41
(dp42
g7
S'PATTERSON'
p43
sg9
I01
sg10
I01
sg11
S'SP8'
p44
sg13
S'SIMON'
p45
sbag1
(g2
g3
Ntp46
Rp47
(dp48
g7
S'LAWRENCE'
p49
sg9
I01
sg10
I01
sg11
S'ML6'
p50
sg13
S'MARI'
p51
sbag1
(g21
g3
Ntp52
Rp53
(dp54
g7
S'RILEY'
p55
sg9
I01
sg10
I00
sg11
S'LR3'
p56
sg13
S'LEIGH'
p57
sbag1
(g2
g3
Ntp58
Rp59
(dp60
g7
S'LOPEZ'
p61
sg9
I01
sg10
I01
sg11
S'TL2'
p62
sg13
S'TANA'
p63
sbag1
(g21
g3
Ntp64
Rp65
(dp66
g7
S'McGUIRE'
p67
sg9
I01
sg10
I00
sg11
S'KM7'
p68
sg13
S'KELLY'
p69
sba.