(lp0
ccopy_reg
_reconstructor
p1
(csrc.fellow
Fellow
p2
c__builtin__
object
p3
Ntp4
Rp5
(dp6
S'lastname'
p7
S'nwuru'
p8
sS'living_space'
p9
I01
sS'firstname'
p10
S'suny'
p11
sbag1
(g2
g3
Ntp12
Rp13
(dp14
g7
S'nwuru'
p15
sg9
I01
sg10
S'suny'
p16
sbag1
(g2
g3
Ntp17
Rp18
(dp19
g7
S'nwuru'
p20
sg9
I00
sg10
S'suny'
p21
sbag1
(g2
g3
Ntp22
Rp23
(dp24
g7
S'nwuru'
p25
sg9
I00
sg10
S'suny'
p26
sba.