(lp0
ccopy_reg
_reconstructor
p1
(csrc.fellow
Fellow
p2
c__builtin__
object
p3
Ntp4
Rp5
(dp6
S'date_time'
p7
V2016-04-29 18:34:22.154350
p8
sS'living_space'
p9
I01
sS'uid'
p10
S'SG88'
p11
sS'firstname'
p12
S'SUNDAY'
p13
sS'lastname'
p14
S'GOODMAN'
p15
sS'is_allocated'
p16
I01
sS'assigned_room'
p17
(dp18
S'LIVINGSPACE'
p19
S'BASH'
p20
sS'OFFICE'
p21
S'FLASH'
p22
ssbag1
(g2
g3
Ntp23
Rp24
(dp25
g7
V2016-04-29 18:34:22.156828
p26
sg9
I01
sg10
S'SN96'
p27
sg12
S'SUNDAY'
p28
sg14
S'NAK'
p29
sg16
I01
sg17
(dp30
S'LIVINGSPACE'
p31
S'BAT'
p32
sS'OFFICE'
p33
S'CAP'
p34
ssbag1
(csrc.staff
Staff
p35
g3
Ntp36
Rp37
(dp38
g7
V2016-04-29 18:34:22.160407
p39
sg9
I00
sg10
S'SN30'
p40
sg12
S'SUNDAY'
p41
sg14
S'NAD'
p42
sg16
I01
sg17
(dp43
S'OFFICE'
p44
S'CAP'
p45
ssba.