(lp0
ccopy_reg
_reconstructor
p1
(csrc.fellow
Fellow
p2
c__builtin__
object
p3
Ntp4
Rp5
(dp6
S'living_space'
p7
I01
sS'uid'
p8
<<<<<<< HEAD
S'OS2'
=======
S'OS20'
>>>>>>> d1f16c7447649d64d259929ee238d3de12218374
p9
sS'firstname'
p10
S'OLUWAFEMI'
p11
sS'lastname'
p12
S'SULE'
p13
sS'is_allocated'
p14
I01
sS'util'
p15
g1
(csrc.util
Util
p16
g3
Ntp17
Rp18
(dp19
S'file_manager'
p20
g1
(csrc.fileman
FileMan
p21
g3
Ntp22
Rp23
(dp24
S'file_location'
p25
S'/Users/andela/Documents/projects/room-allocation/data/people.pkl'
p26
sS'base'
p27
S'/Users/andela/Documents/projects/room-allocation'
p28
sbsS'db'
p29
g1
(csrc.db
Db
p30
g3
Ntp31
Rp32
(dp33
S'db_location'
p34
S'/Users/andela/Documents/projects/room-allocation/amity.db'
p35
sS'table_name'
p36
S'table_name'
p37
sS'error_message'
p38
S''
p39
sS'name'
p40
S'amity'
p41
sbsbsS'assigned_room'
p42
(dp43
S'LIVINGSPACE'
<<<<<<< HEAD
p44
S'TESTROOM 3'
p45
=======
p17
S'TESTROOM 1'
p18
>>>>>>> d1f16c7447649d64d259929ee238d3de12218374
sS'OFFICE'
p46
S'TESTROOM 2'
p47
ssbag1
(csrc.staff
Staff
p48
g3
Ntp49
Rp50
(dp51
g7
I00
sg8
<<<<<<< HEAD
S'DW2'
p52
=======
S'DW27'
p25
>>>>>>> d1f16c7447649d64d259929ee238d3de12218374
sg10
S'DOMINIC'
p53
sg12
S'WALTERS'
p54
sg14
I01
sg15
g1
(g16
g3
Ntp55
Rp56
(dp57
g20
g1
(g21
g3
Ntp58
Rp59
(dp60
g25
S'/Users/andela/Documents/projects/room-allocation/data/people.pkl'
p61
sg27
S'/Users/andela/Documents/projects/room-allocation'
p62
sbsg29
g1
(g30
g3
Ntp63
Rp64
(dp65
g34
S'/Users/andela/Documents/projects/room-allocation/amity.db'
p66
sg36
g37
sg38
g39
sg40
g41
sbsbsg42
(dp67
g46
g47
ssba.