(lp0
ccopy_reg
_reconstructor
p1
(csrc.fellow
Fellow
p2
c__builtin__
object
p3
Ntp4
Rp5
(dp6
S'living_space'
p7
I00
sS'uid'
p8
S'TU2'
p9
sS'firstname'
p10
S'TEST'
p11
sS'lastname'
p12
S'USER'
p13
sS'is_allocated'
p14
I01
sS'util'
p15
g1
(csrc.util
Util
p16
g3
Ntp17
Rp18
(dp19
S'file_manager'
p20
g1
(csrc.fileman
FileMan
p21
g3
Ntp22
Rp23
(dp24
S'file_location'
p25
S'/Users/andela/Documents/projects/room-allocation/data/people.pkl'
p26
sS'base'
p27
S'/Users/andela/Documents/projects/room-allocation'
p28
sbsS'db'
p29
g1
(csrc.db
Db
p30
g3
Ntp31
Rp32
(dp33
S'db_location'
p34
S'/Users/andela/Documents/projects/room-allocation/amity.db'
p35
sS'table_name'
p36
S'table_name'
p37
sS'error_message'
p38
S''
p39
sS'name'
p40
S'amity'
p41
sbsbsS'assigned_room'
p42
(dp43
S'OFFICE'
p44
S'TESTROOM 2'
p45
ssba.