(lp0
ccopy_reg
_reconstructor
p1
(csrc.fellow
Fellow
p2
c__builtin__
object
p3
Ntp4
Rp5
(dp6
S'living_space'
p7
I01
sS'uid'
p8
S'SG6'
p9
sS'firstname'
p10
S'SUNDAY'
p11
sS'lastname'
p12
S'GOODMAN'
p13
sS'is_allocated'
p14
I01
sS'assigned_room'
p15
(dp16
S'LIVINGSPACE'
p17
S'BAT'
p18
sS'OFFICE'
p19
S'CAP'
p20
ssba.