(lp0
ccopy_reg
_reconstructor
p1
(csrc.fellow
Fellow
p2
c__builtin__
object
p3
Ntp4
Rp5
(dp6
S'living_space'
p7
I01
sS'uid'
p8
S'EJ0'
p9
sS'firstname'
p10
S'ERIKA'
p11
sS'lastname'
p12
S'JOSEPH'
p13
sS'is_allocated'
p14
I01
sS'assigned_room'
p15
S'IROKO'
p16
sbag1
(csrc.staff
Staff
p17
g3
Ntp18
Rp19
(dp20
g7
I00
sg8
S'BM7'
p21
sg10
S'BUKOLA'
p22
sg12
S'MAKINWA'
p23
sg14
I01
sg15
S'CEDAR'
p24
sbag1
(g2
g3
Ntp25
Rp26
(dp27
g12
S'ADE'
p28
sg7
I00
sg8
S'BA7'
p29
sg10
S'BUKOLA'
p30
sbag1
(g2
g3
Ntp31
Rp32
(dp33
g7
I01
sg8
S'OS4'
p34
sg10
S'OLUWAFEMI'
p35
sg12
S'SULE'
p36
sg14
I01
sg15
S'IROKO'
p37
sbag1
(g17
g3
Ntp38
Rp39
(dp40
g7
I00
sg8
S'DW7'
p41
sg10
S'DOMINIC'
p42
sg12
S'WALTERS'
p43
sg14
I01
sg15
S'CEDAR'
p44
sbag1
(g2
g3
Ntp45
Rp46
(dp47
g7
I01
sg8
S'SP0'
p48
sg10
S'SIMON'
p49
sg12
S'PATTERSON'
p50
sg14
I01
sg15
g37
sbag1
(g2
g3
Ntp51
Rp52
(dp53
g7
I01
sg8
S'ML4'
p54
sg10
S'MARI'
p55
sg12
S'LAWRENCE'
p56
sg14
I01
sg15
g37
sbag1
(g17
g3
Ntp57
Rp58
(dp59
g7
I00
sg8
S'LR3'
p60
sg10
S'LEIGH'
p61
sg12
S'RILEY'
p62
sg14
I01
sg15
g44
sbag1
(g2
g3
Ntp63
Rp64
(dp65
g7
I01
sg8
S'TL4'
p66
sg10
S'TANA'
p67
sg12
S'LOPEZ'
p68
sg14
I01
sg15
S'SHRUBS'
p69
sbag1
(g17
g3
Ntp70
Rp71
(dp72
g7
I00
sg8
S'KM8'
p73
sg10
S'KELLY'
p74
sg12
S'McGUIRE'
p75
sg14
I01
sg15
g44
sba.