(lp0
ccopy_reg
_reconstructor
p1
(csrc.fellow
Fellow
p2
c__builtin__
object
p3
Ntp4
Rp5
(dp6
S'lastname'
p7
S'goodman'
p8
sS'living_space'
p9
I01
sS'uid'
p10
S'sg4'
p11
sS'firstname'
p12
S'sunday'
p13
sba.