(lp0
ccopy_reg
_reconstructor
p1
(csrc.fellow
Fellow
p2
c__builtin__
object
p3
Ntp4
Rp5
(dp6
S'living_space'
p7
I01
sS'uid'
p8
S'SN8'
p9
sS'firstname'
p10
S'SUNDAY'
p11
sS'lastname'
p12
S'NWUGURU'
p13
sS'is_allocated'
p14
I01
sS'assigned_room'
p15
S'CEDAR'
p16
sbag1
(g2
g3
Ntp17
Rp18
(dp19
g7
I01
sg8
S'HO2'
p20
sg10
S'HASSAN'
p21
sg12
S'OYEBODE'
p22
sg14
I01
sg15
S'MAHOGANY'
p23
sba.