(lp0
ccopy_reg
_reconstructor
p1
(csrc.fellow
Fellow
p2
c__builtin__
object
p3
Ntp4
Rp5
(dp6
S'date_time'
p7
V2016-04-27 21:20:42.018598
p8
sS'living_space'
p9
I01
sS'uid'
p10
S'SN6'
p11
sS'firstname'
p12
S'SUNDAY'
p13
sS'lastname'
p14
S'NWUGURU'
p15
sS'is_allocated'
p16
I01
sS'assigned_room'
p17
VCEDAR
p18
sbag1
(g2
g3
Ntp19
Rp20
(dp21
g7
V2016-04-27 21:20:42.020375
p22
sg9
I00
sg10
S'HO2'
p23
sg12
S'HASSAN'
p24
sg14
S'OYEBODE'
p25
sg16
I00
sg17
S''
p26
sba.