(lp0
ccopy_reg
_reconstructor
p1
(csrc.fellow
Fellow
p2
c__builtin__
object
p3
Ntp4
Rp5
(dp6
S'living_space'
p7
I01
sS'uid'
p8
S'SG1'
p9
sS'firstname'
p10
S'SUNDAY'
p11
sS'lastname'
p12
S'GURU'
p13
sS'is_allocated'
p14
I00
sS'util'
p15
g1
(csrc.util
Util
p16
g3
Ntp17
Rp18
(dp19
S'file_manager'
p20
g1
(csrc.fileman
FileMan
p21
g3
Ntp22
Rp23
(dp24
S'file_location'
p25
S'/Users/andela/Documents/projects/room-allocation/data/people.pkl'
p26
sS'base'
p27
S'/Users/andela/Documents/projects/room-allocation'
p28
sbsS'db'
p29
g1
(csrc.db
Db
p30
g3
Ntp31
Rp32
(dp33
S'db_location'
p34
S'/Users/andela/Documents/projects/room-allocation/amity.db'
p35
sS'table_name'
p36
S'table_name'
p37
sS'error_message'
p38
S''
p39
sS'name'
p40
S'amity'
p41
sbsbsS'assigned_room'
p42
(dp43
sbag1
(csrc.staff
Staff
p44
g3
Ntp45
Rp46
(dp47
g7
I01
sg8
S'SN2'
p48
sg10
S'SUNDAY'
p49
sg12
S'NANDAA'
p50
sg14
I00
sg15
g1
(g16
g3
Ntp51
Rp52
(dp53
g20
g1
(g21
g3
Ntp54
Rp55
(dp56
g25
S'/Users/andela/Documents/projects/room-allocation/data/people.pkl'
p57
sg27
S'/Users/andela/Documents/projects/room-allocation'
p58
sbsg29
g1
(g30
g3
Ntp59
Rp60
(dp61
g34
S'/Users/andela/Documents/projects/room-allocation/amity.db'
p62
sg36
S'table_name'
p63
sg38
g39
sg40
S'amity'
p64
sbsbsg42
(dp65
sbag1
(g44
g3
Ntp66
Rp67
(dp68
g7
I00
sg8
S'SN3'
p69
sg10
S'SUNDAY'
p70
sg12
S'NAN'
p71
sg14
I00
sg15
g1
(g16
g3
Ntp72
Rp73
(dp74
g20
g1
(g21
g3
Ntp75
Rp76
(dp77
g25
S'/Users/andela/Documents/projects/room-allocation/data/people.pkl'
p78
sg27
S'/Users/andela/Documents/projects/room-allocation'
p79
sbsg29
g1
(g30
g3
Ntp80
Rp81
(dp82
g34
S'/Users/andela/Documents/projects/room-allocation/amity.db'
p83
sg38
g39
sg36
g36
sg40
S'amity'
p84
sbsbsg42
(dp85
sba.