(lp0
ccopy_reg
_reconstructor
p1
(csrc.livingspace
LivingSpace
p2
c__builtin__
object
p3
Ntp4
Rp5
(dp6
S'is_filled'
p7
I00
sS'error_message'
p8
S''
p9
sS'name'
p10
S'BASH'
p11
sS'people'
p12
(lp13
g1
(csrc.fellow
Fellow
p14
g3
Ntp15
Rp16
(dp17
S'living_space'
p18
I01
sS'uid'
p19
S'SG9'
p20
sS'firstname'
p21
S'SUNDAY'
p22
sS'lastname'
p23
S'GOODMAN'
p24
sS'is_allocated'
p25
I01
sS'assigned_room'
p26
S'GOSH'
p27
sbasbag1
(csrc.office
Office
p28
g3
Ntp29
Rp30
(dp31
g7
I00
sg8
g9
sg10
g27
sg12
(lp32
sbag1
(g2
g3
Ntp33
Rp34
(dp35
g7
I00
sg8
g9
sg10
S'FLUSH'
p36
sg12
(lp37
sbag1
(g28
g3
Ntp38
Rp39
(dp40
g7
I00
sg8
g9
sg10
S'CLASHY'
p41
sg12
(lp42
g1
(csrc.staff
Staff
p43
g3
Ntp44
Rp45
(dp46
g18
I01
sg19
S'AN3'
p47
sg21
S'ANOTHONY'
p48
sg23
S'NANDAA'
p49
sg25
I01
sg26
g41
sbag1
(g14
g3
Ntp50
Rp51
(dp52
g18
I01
sg19
S'SG9'
p53
sg21
S'SUNDAY'
p54
sg23
S'GOODMAN'
p55
sg25
I01
sg26
g41
sbasba.