(lp0
ccopy_reg
_reconstructor
p1
(csrc.office
Office
p2
c__builtin__
object
p3
Ntp4
Rp5
(dp6
S'name'
p7
S'iroko'
p8
sS'people'
p9
(lp10
sbag1
(csrc.livingspace
LivingSpace
p11
g3
Ntp12
Rp13
(dp14
g7
S'cedar'
p15
sg9
(lp16
g1
(csrc.fellow
Fellow
p17
g3
Ntp18
Rp19
(dp20
S'lastname'
p21
S'goodman'
p22
sS'living_space'
p23
I01
sS'uid'
p24
S'sg4'
p25
sS'firstname'
p26
S'sunday'
p27
sbasbag1
(g11
g3
Ntp28
Rp29
(dp30
g7
S'oaks'
p31
sg9
(lp32
sbag1
(g2
g3
Ntp33
Rp34
(dp35
g7
S'shrubs'
p36
sg9
(lp37
sba.