(lp0
ccopy_reg
_reconstructor
p1
(csrc.livingspace
LivingSpace
p2
c__builtin__
object
p3
Ntp4
Rp5
(dp6
S'util'
p7
g1
(csrc.util
Util
p8
g3
Ntp9
Rp10
(dp11
S'file_manager'
p12
g1
(csrc.fileman
FileMan
p13
g3
Ntp14
Rp15
(dp16
S'file_location'
p17
S'/Users/andela/Documents/projects/room-allocation/data/'
p18
sS'base'
p19
S'/Users/andela/Documents/projects/room-allocation'
p20
sbsS'db'
p21
g1
(csrc.db
Db
p22
g3
Ntp23
Rp24
(dp25
S'db_location'
p26
S'/Users/andela/Documents/projects/room-allocation/amity.db'
p27
sS'error_message'
p28
S''
p29
sS'table_name'
p30
g30
sS'name'
p31
S'amity'
p32
sbsbsS'is_filled'
p33
I00
sg28
g29
sg31
S'TESTROOM 1'
p34
sS'people'
p35
(lp36
sbag1
(csrc.office
Office
p37
g3
Ntp38
Rp39
(dp40
g7
g1
(g8
g3
Ntp41
Rp42
(dp43
g12
g1
(g13
g3
Ntp44
Rp45
(dp46
g17
S'/Users/andela/Documents/projects/room-allocation/data/'
p47
sg19
S'/Users/andela/Documents/projects/room-allocation'
p48
sbsg21
g1
(g22
g3
Ntp49
Rp50
(dp51
g26
S'/Users/andela/Documents/projects/room-allocation/amity.db'
p52
sg28
g29
sg30
g30
sg31
g32
sbsbsg33
I00
sg28
g29
sg31
S'TESTROOM 2'
p53
sg35
(lp54
sbag1
(g2
g3
Ntp55
Rp56
(dp57
g7
g1
(g8
g3
Ntp58
Rp59
(dp60
g12
g1
(g13
g3
Ntp61
Rp62
(dp63
g17
S'/Users/andela/Documents/projects/room-allocation/data/'
p64
sg19
S'/Users/andela/Documents/projects/room-allocation'
p65
sbsg21
g1
(g22
g3
Ntp66
Rp67
(dp68
g26
S'/Users/andela/Documents/projects/room-allocation/amity.db'
p69
sg28
g29
sg30
g30
sg31
g32
sbsbsg33
I00
sg28
g29
sg31
S'TESTROOM 3'
p70
sg35
(lp71
sba.