(lp0
ccopy_reg
_reconstructor
p1
(csrc.livingspace
LivingSpace
p2
c__builtin__
object
p3
Ntp4
Rp5
(dp6
S'error_message'
p7
S'ANTHONY NANDAA cannot be allocated to CEDAR'
p8
sS'name'
p9
S'CEDAR'
p10
sS'people'
p11
(lp12
g1
(csrc.fellow
Fellow
p13
g3
Ntp14
Rp15
(dp16
S'living_space'
p17
I01
sS'uid'
p18
S'SN1'
p19
sS'firstname'
p20
S'SUNDAY'
p21
sS'lastname'
p22
S'NWUGURU'
p23
sS'is_allocated'
p24
I01
sS'assigned_room'
p25
g10
sbasbag1
(csrc.office
Office
p26
g3
Ntp27
Rp28
(dp29
g9
S'IROKO'
p30
sg11
(lp31
g1
(csrc.staff
Staff
p32
g3
Ntp33
Rp34
(dp35
g17
I00
sg18
S'AN4'
p36
sg20
S'ANTHONY'
p37
sg22
S'NANDAA'
p38
sg24
I01
sg25
g30
sbasba.