(lp0
ccopy_reg
_reconstructor
p1
(csrc.livingspace
LivingSpace
p2
c__builtin__
object
p3
Ntp4
Rp5
(dp6
S'is_filled'
p7
I00
sS'error_message'
p8
S''
p9
sS'name'
p10
S'CEDAR'
p11
sS'people'
p12
(lp13
g1
(csrc.fellow
Fellow
p14
g3
Ntp15
Rp16
(dp17
S'date_time'
p18
V2016-04-27 21:20:42.018598
p19
sS'living_space'
p20
I01
sS'uid'
p21
S'SN2'
p22
sS'firstname'
p23
S'SUNDAY'
p24
sS'lastname'
p25
S'NWUGURU'
p26
sS'is_allocated'
p27
I00
sS'assigned_room'
p28
VCEDAR
p29
sbag1
(g14
g3
Ntp30
Rp31
(dp32
g18
V2016-04-27 21:20:42.020375
p33
sg20
I01
sg21
S'HO9'
p34
sg23
S'HASSAN'
p35
sg25
S'OYEBODE'
p36
sg27
I01
sg28
g11
sbasbag1
(csrc.office
Office
p37
g3
Ntp38
Rp39
(dp40
g7
I00
sg8
g9
sg10
S'IROKO'
p41
sg12
(lp42
sbag1
(g2
g3
Ntp43
Rp44
(dp45
g7
I00
sg8
g9
sg10
S'SHRUBS'
p46
sg12
(lp47
sbag1
(g2
g3
Ntp48
Rp49
(dp50
g7
I00
sg8
g9
sg10
S'MAHOGANY'
p51
sg12
(lp52
g1
(g14
g3
Ntp53
Rp54
(dp55
g18
V2016-04-27 21:20:42.020375
p56
sg20
I01
sg21
S'HO6'
p57
sg23
S'HASSAN'
p58
sg25
S'OYEBODE'
p59
sg27
I00
sg28
VMAHOGANY
p60
sbag1
(g14
g3
Ntp61
Rp62
(dp63
g18
V2016-04-27 21:20:42.018598
p64
sg20
I01
sg21
S'SN8'
p65
sg23
S'SUNDAY'
p66
sg25
S'NWUGURU'
p67
sg27
I01
sg28
g51
sbasbag1
(g2
g3
Ntp68
Rp69
(dp70
g7
I00
sg8
g9
sg10
S'OS'
p71
sg12
(lp72
sba.