(lp0
ccopy_reg
_reconstructor
p1
(csrc.office
Office
p2
c__builtin__
object
p3
Ntp4
Rp5
(dp6
S'name'
p7
S'iroko'
p8
sS'people'
p9
(lp10
sbag1
(csrc.livingspace
LivingSpace
p11
g3
Ntp12
Rp13
(dp14
g7
S'cedar'
p15
sg9
(lp16
sbag1
(g11
g3
Ntp17
Rp18
(dp19
g7
S'Oaks'
p20
sg9
(lp21
sba.