(lp0
ccopy_reg
_reconstructor
p1
(csrc.office
Office
p2
c__builtin__
object
p3
Ntp4
Rp5
(dp6
S'is_filled'
p7
I00
sS'error_message'
p8
S''
p9
sS'name'
p10
S'FLASH'
p11
sS'people'
p12
(lp13
sbag1
(csrc.livingspace
LivingSpace
p14
g3
Ntp15
Rp16
(dp17
g7
I00
sg8
S'SUNDAY GOODMAN cannot be allocated to BAT'
p18
sg10
S'BAT'
p19
sg12
(lp20
g1
(csrc.fellow
Fellow
p21
g3
Ntp22
Rp23
(dp24
S'date_time'
p25
V2016-04-29 18:34:22.156828
p26
sS'living_space'
p27
I01
sS'uid'
p28
S'SN71'
p29
sS'firstname'
p30
S'SUNDAY'
p31
sS'lastname'
p32
S'NAK'
p33
sS'is_allocated'
p34
I01
sS'assigned_room'
p35
(dp36
S'LIVINGSPACE'
p37
g19
sS'OFFICE'
p38
S'CAP'
p39
ssbag1
(g21
g3
Ntp40
Rp41
(dp42
g25
V2016-04-29 18:34:22.154350
p43
sg27
I01
sg28
S'SG88'
p44
sg30
S'SUNDAY'
p45
sg32
S'GOODMAN'
p46
sg34
I01
sg35
(dp47
S'LIVINGSPACE'
p48
g19
sS'OFFICE'
p49
g11
ssbasbag1
(g2
g3
Ntp50
Rp51
(dp52
g7
I00
sg8
S'MONDAY ROCKY cannot be allocated to CAP'
p53
sg10
S'CAP'
p54
sg12
(lp55
g1
(g21
g3
Ntp56
Rp57
(dp58
g25
V2016-04-29 18:34:22.156828
p59
sg27
I01
sg28
S'SN81'
p60
sg30
S'SUNDAY'
p61
sg32
S'NAK'
p62
sg34
I01
sg35
(dp63
S'LIVINGSPACE'
p64
S'BAT'
p65
sS'OFFICE'
p66
g54
ssbag1
(csrc.staff
Staff
p67
g3
Ntp68
Rp69
(dp70
g25
V2016-04-29 18:34:22.160407
p71
sg27
I00
sg28
S'SN08'
p72
sg30
S'SUNDAY'
p73
sg32
S'NAD'
p74
sg34
I01
sg35
(dp75
S'OFFICE'
p76
g54
ssbasbag1
(g14
g3
Ntp77
Rp78
(dp79
g7
I00
sg8
S'SUNDAY GOODMAN cannot be allocated to BASH'
p80
sg10
S'BASH'
p81
sg12
(lp82
sba.