(lp0
ccopy_reg
_reconstructor
p1
(csrc.office
Office
p2
c__builtin__
object
p3
Ntp4
Rp5
(dp6
S'is_filled'
p7
I00
sS'error_message'
p8
S''
p9
sS'name'
p10
S'FLASH'
p11
sS'people'
p12
(lp13
sbag1
(csrc.livingspace
LivingSpace
p14
g3
Ntp15
Rp16
(dp17
g7
I00
sg8
g9
sg10
S'BAT'
p18
sg12
(lp19
g1
(csrc.fellow
Fellow
p20
g3
Ntp21
Rp22
(dp23
S'living_space'
p24
I01
sS'uid'
p25
S'SG6'
p26
sS'firstname'
p27
S'SUNDAY'
p28
sS'lastname'
p29
S'GOODMAN'
p30
sS'is_allocated'
p31
I01
sS'assigned_room'
p32
(dp33
S'LIVINGSPACE'
p34
g18
sS'OFFICE'
p35
S'CAP'
p36
ssbasbag1
(g2
g3
Ntp37
Rp38
(dp39
g7
I00
sg8
g9
sg10
g36
sg12
(lp40
g1
(g20
g3
Ntp41
Rp42
(dp43
g24
I01
sg25
S'SG6'
p44
sg27
S'SUNDAY'
p45
sg29
S'GOODMAN'
p46
sg31
I01
sg32
(dp47
S'LIVINGSPACE'
p48
S'BAT'
p49
sS'OFFICE'
p50
g36
ssbasbag1
(g14
g3
Ntp51
Rp52
(dp53
g7
I00
sg8
g9
sg10
S'BASH'
p54
sg12
(lp55
sba.