(lp0
ccopy_reg
_reconstructor
p1
(csrc.livingspace
LivingSpace
p2
c__builtin__
object
p3
Ntp4
Rp5
(dp6
S'is_filled'
p7
I00
sS'error_message'
p8
S''
p9
sS'name'
p10
S'TESTROOM 1'
p11
sS'people'
p12
(lp13
sbag1
(csrc.office
Office
p14
g3
Ntp15
Rp16
(dp17
g7
I00
sg8
g9
sg10
S'TESTROOM 2'
p18
sg12
(lp19
sbag1
(g2
g3
Ntp20
Rp21
(dp22
g7
I00
sg8
g9
sg10
S'TESTROOM 3'
p23
sg12
(lp24
sba.