(lp0
ccopy_reg
_reconstructor
p1
(csrc.livingspace
LivingSpace
p2
c__builtin__
object
p3
Ntp4
Rp5
(dp6
S'name'
p7
S'CEDAR'
p8
sS'people'
p9
(lp10
g1
(csrc.fellow
Fellow
p11
g3
Ntp12
Rp13
(dp14
S'living_space'
p15
I01
sS'uid'
p16
S'SN8'
p17
sS'firstname'
p18
S'SUNDAY'
p19
sS'lastname'
p20
S'NWUGURU'
p21
sS'is_allocated'
p22
I01
sS'assigned_room'
p23
g8
sbasbag1
(csrc.office
Office
p24
g3
Ntp25
Rp26
(dp27
g7
S'IROKO'
p28
sg9
(lp29
sbag1
(g2
g3
Ntp30
Rp31
(dp32
g7
S'SHRUBS'
p33
sg9
(lp34
sbag1
(g2
g3
Ntp35
Rp36
(dp37
g7
S'MAHOGANY'
p38
sg9
(lp39
g1
(g11
g3
Ntp40
Rp41
(dp42
g15
I01
sg16
S'HO2'
p43
sg18
S'HASSAN'
p44
sg20
S'OYEBODE'
p45
sg22
I01
sg23
g38
sbasba.