(lp0
ccopy_reg
_reconstructor
p1
(csrc.livingspace
LivingSpace
p2
c__builtin__
object
p3
Ntp4
Rp5
(dp6
S'is_filled'
p7
I00
sS'error_message'
p8
S''
p9
sS'name'
p10
S'TESTROOM 1'
p11
sS'people'
p12
(lp13
sbag1
(csrc.office
Office
p14
g3
Ntp15
Rp16
(dp17
g7
I00
sg8
g9
sg10
S'TESTROOM 2'
p18
sg12
(lp19
g1
(csrc.staff
Staff
p20
g3
Ntp21
Rp22
(dp23
S'living_space'
p24
I00
sS'uid'
p25
S'SD46'
p26
sS'firstname'
p27
S'SUN'
p28
sS'lastname'
p29
S'DAY'
p30
sS'is_allocated'
p31
I01
sS'util'
p32
g1
(csrc.util
Util
p33
g3
Ntp34
Rp35
(dp36
S'file_manager'
p37
g1
(csrc.fileman
FileMan
p38
g3
Ntp39
Rp40
(dp41
S'file_location'
p42
S'/Users/andela/Documents/projects/room-allocation/data/'
p43
sS'base'
p44
S'/Users/andela/Documents/projects/room-allocation'
p45
sbsS'db'
p46
g1
(csrc.db
Db
p47
g3
Ntp48
Rp49
(dp50
S'db_location'
p51
S'/Users/andela/Documents/projects/room-allocation/amity.db'
p52
sS'table_name'
p53
S'table_name'
p54
sg8
g9
sg10
S'amity'
p55
sbsbsS'assigned_room'
p56
(dp57
S'OFFICE'
p58
g18
ssbag1
(csrc.fellow
Fellow
p59
g3
Ntp60
Rp61
(dp62
g24
I01
sg25
S'SD12'
p63
sg27
S'SUN2'
p64
sg29
S'DAY2'
p65
sg31
I01
sg32
g1
(g33
g3
Ntp66
Rp67
(dp68
g37
g1
(g38
g3
Ntp69
Rp70
(dp71
g42
S'/Users/andela/Documents/projects/room-allocation/data/'
p72
sg44
S'/Users/andela/Documents/projects/room-allocation'
p73
sbsg46
g1
(g47
g3
Ntp74
Rp75
(dp76
g51
S'/Users/andela/Documents/projects/room-allocation/amity.db'
p77
sg8
g9
sg53
g53
sg10
S'amity'
p78
sbsbsg56
(dp79
S'LIVINGSPACE'
p80
S'FOO'
p81
sS'OFFICE'
p82
g18
ssbasbag1
(g2
g3
Ntp83
Rp84
(dp85
g7
I00
sg8
g9
sg10
S'TESTROOM 3'
p86
sg12
(lp87
sbag1
(g2
g3
Ntp88
Rp89
(dp90
g32
g1
(g33
g3
Ntp91
Rp92
(dp93
g37
g1
(g38
g3
Ntp94
Rp95
(dp96
g42
S'/Users/andela/Documents/projects/room-allocation/data/'
p97
sg44
S'/Users/andela/Documents/projects/room-allocation'
p98
sbsg46
g1
(g47
g3
Ntp99
Rp100
(dp101
g51
S'/Users/andela/Documents/projects/room-allocation/amity.db'
p102
sg53
S'table_name'
p103
sg8
g9
sg10
S'amity'
p104
sbsbsg7
I00
sg8
g9
sg10
g81
sg12
(lp105
g61
asba.