(lp0
ccopy_reg
_reconstructor
p1
(csrc.livingspace
LivingSpace
p2
c__builtin__
object
p3
Ntp4
Rp5
(dp6
S'name'
p7
S'IROKO'
p8
sS'people'
p9
(lp10
g1
(csrc.fellow
Fellow
p11
g3
Ntp12
Rp13
(dp14
S'date_time'
p15
V2016-04-23 19:25:27.204860
p16
sS'living_space'
p17
I01
sS'uid'
p18
S'OS2'
p19
sS'firstname'
p20
S'OLUWAFEMI'
p21
sS'lastname'
p22
S'SULE'
p23
sS'assigned_room'
p24
VIROKO
p25
sbag1
(g11
g3
Ntp26
Rp27
(dp28
g15
V2016-04-23 19:25:27.209464
p29
sg17
I01
sg18
S'ML6'
p30
sg20
S'MARI'
p31
sg22
S'LAWRENCE'
p32
sg24
VIROKO
p33
sbag1
(g11
g3
Ntp34
Rp35
(dp36
g15
V2016-04-23 19:25:27.212217
p37
sg17
I01
sg18
S'TL7'
p38
sg20
S'TANA'
p39
sg22
S'LOPEZ'
p40
sg24
VIROKO
p41
sbag1
(g11
g3
Ntp42
Rp43
(dp44
g17
I01
sg18
S'SG5'
p45
sg20
S'SUNDAY'
p46
sg22
S'GOODMAN'
p47
sS'is_allocated'
p48
I01
sg24
g8
sbasbag1
(g2
g3
Ntp49
Rp50
(dp51
g7
S'CEDAR'
p52
sg9
(lp53
g1
(g11
g3
Ntp54
Rp55
(dp56
g15
V2016-04-23 19:25:27.207950
p57
sg17
I01
sg18
S'SP0'
p58
sg20
S'SIMON'
p59
sg22
S'PATTERSON'
p60
sg24
VCEDAR
p61
sbag1
(g11
g3
Ntp62
Rp63
(dp64
g15
V2016-04-23 19:25:27.220293
p65
sg17
I01
sg18
S'LE6'
p66
sg20
S'LION'
p67
sg22
S'ENI'
p68
sg48
I01
sg24
g52
sbasbag1
(csrc.office
Office
p69
g3
Ntp70
Rp71
(dp72
g7
S'SHRUBS'
p73
sg9
(lp74
g1
(csrc.staff
Staff
p75
g3
Ntp76
Rp77
(dp78
g15
V2016-04-23 19:25:27.206546
p79
sg17
I00
sg18
S'DW2'
p80
sg20
S'DOMINIC'
p81
sg22
S'WALTERS'
p82
sg24
VSHRUBS
p83
sbag1
(g75
g3
Ntp84
Rp85
(dp86
g15
V2016-04-23 19:25:27.210962
p87
sg17
I00
sg18
S'LR2'
p88
sg20
S'LEIGH'
p89
sg22
S'RILEY'
p90
sg24
VSHRUBS
p91
sbag1
(g75
g3
Ntp92
Rp93
(dp94
g15
V2016-04-23 19:25:27.213579
p95
sg17
I00
sg18
S'KM6'
p96
sg20
S'KELLY'
p97
sg22
S'McGUIRE'
p98
sg24
VSHRUBS
p99
sbasbag1
(g69
g3
Ntp100
Rp101
(dp102
g7
S'OAKS'
p103
sg9
(lp104
sbag1
(g2
g3
Ntp105
Rp106
(dp107
g7
S'OCHEBE'
p108
sg9
(lp109
g1
(g11
g3
Ntp110
Rp111
(dp112
g15
V2016-04-23 19:25:27.214909
p113
sg17
I01
sg18
S'SA5'
p114
sg20
S'SEYI'
p115
sg22
S'ADEKOYA'
p116
sg24
VOCHEBE
p117
sbag1
(g11
g3
Ntp118
Rp119
(dp120
g15
V2016-04-23 19:25:27.216262
p121
sg17
I01
sg18
S'JA6'
p122
sg20
S'JOHN'
p123
sg22
S'ADEAYE'
p124
sg24
VOCHEBE
p125
sbasbag1
(g69
g3
Ntp126
Rp127
(dp128
g7
S'WILLOW'
p129
sg9
(lp130
sbag1
(g69
g3
Ntp131
Rp132
(dp133
g7
S'IROKO'
p134
sg9
(lp135
sbag1
(g2
g3
Ntp136
Rp137
(dp138
g7
S'UCHE'
p139
sg9
(lp140
sbag1
(g69
g3
Ntp141
Rp142
(dp143
g7
S'IROKO'
p144
sg9
(lp145
sbag1
(g2
g3
Ntp146
Rp147
(dp148
g7
S'UCHE'
p149
sg9
(lp150
sbag1
(g69
g3
Ntp151
Rp152
(dp153
g7
S'IROKO'
p154
sg9
(lp155
sbag1
(g2
g3
Ntp156
Rp157
(dp158
g7
S'UCHE'
p159
sg9
(lp160
sba.