(lp0
ccopy_reg
_reconstructor
p1
(csrc.livingspace
LivingSpace
p2
c__builtin__
object
p3
Ntp4
Rp5
(dp6
S'name'
p7
S'IROKO'
p8
sS'people'
p9
(lp10
g1
(csrc.fellow
Fellow
p11
g3
Ntp12
Rp13
(dp14
S'date_time'
p15
V2016-04-23 19:25:27.204860
p16
sS'living_space'
p17
I01
sS'uid'
p18
S'OS2'
p19
sS'firstname'
p20
S'OLUWAFEMI'
p21
sS'lastname'
p22
S'SULE'
p23
sS'assigned_room'
p24
VIROKO
p25
sbag1
(g11
g3
Ntp26
Rp27
(dp28
g15
V2016-04-23 19:25:27.209464
p29
sg17
I01
sg18
S'ML6'
p30
sg20
S'MARI'
p31
sg22
S'LAWRENCE'
p32
sg24
VIROKO
p33
sbag1
(g11
g3
Ntp34
Rp35
(dp36
g15
V2016-04-23 19:25:27.212217
p37
sg17
I01
sg18
S'TL7'
p38
sg20
S'TANA'
p39
sg22
S'LOPEZ'
p40
sg24
VIROKO
p41
sbasbag1
(g2
g3
Ntp42
Rp43
(dp44
g7
S'CEDAR'
p45
sg9
(lp46
g1
(g11
g3
Ntp47
Rp48
(dp49
g15
V2016-04-23 19:25:27.207950
p50
sg17
I01
sg18
S'SP0'
p51
sg20
S'SIMON'
p52
sg22
S'PATTERSON'
p53
sg24
VCEDAR
p54
sbag1
(g11
g3
Ntp55
Rp56
(dp57
g15
V2016-04-23 19:25:27.220293
p58
sg17
I01
sg18
S'LE6'
p59
sg20
S'LION'
p60
sg22
S'ENI'
p61
sS'is_allocated'
p62
I01
sg24
g45
sbasbag1
(csrc.office
Office
p63
g3
Ntp64
Rp65
(dp66
g7
S'SHRUBS'
p67
sg9
(lp68
g1
(csrc.staff
Staff
p69
g3
Ntp70
Rp71
(dp72
g15
V2016-04-23 19:25:27.206546
p73
sg17
I00
sg18
S'DW2'
p74
sg20
S'DOMINIC'
p75
sg22
S'WALTERS'
p76
sg24
VSHRUBS
p77
sbag1
(g69
g3
Ntp78
Rp79
(dp80
g15
V2016-04-23 19:25:27.210962
p81
sg17
I00
sg18
S'LR2'
p82
sg20
S'LEIGH'
p83
sg22
S'RILEY'
p84
sg24
VSHRUBS
p85
sbag1
(g69
g3
Ntp86
Rp87
(dp88
g15
V2016-04-23 19:25:27.213579
p89
sg17
I00
sg18
S'KM6'
p90
sg20
S'KELLY'
p91
sg22
S'McGUIRE'
p92
sg24
VSHRUBS
p93
sbasbag1
(g63
g3
Ntp94
Rp95
(dp96
g7
S'OAKS'
p97
sg9
(lp98
sbag1
(g2
g3
Ntp99
Rp100
(dp101
g7
S'OCHEBE'
p102
sg9
(lp103
g1
(g11
g3
Ntp104
Rp105
(dp106
g15
V2016-04-23 19:25:27.214909
p107
sg17
I01
sg18
S'SA5'
p108
sg20
S'SEYI'
p109
sg22
S'ADEKOYA'
p110
sg24
VOCHEBE
p111
sbag1
(g11
g3
Ntp112
Rp113
(dp114
g15
V2016-04-23 19:25:27.216262
p115
sg17
I01
sg18
S'JA6'
p116
sg20
S'JOHN'
p117
sg22
S'ADEAYE'
p118
sg24
VOCHEBE
p119
sbasbag1
(g63
g3
Ntp120
Rp121
(dp122
g7
S'WILLOW'
p123
sg9
(lp124
sba.