(lp0
ccopy_reg
_reconstructor
p1
(csrc.office
Office
p2
c__builtin__
object
p3
Ntp4
Rp5
(dp6
S'error_message'
p7
S'TANA LOPEZ cannot be allocated to iroko'
p8
sS'name'
p9
S'iroko'
p10
sS'people'
p11
(lp12
g1
(csrc.staff
Staff
p13
g3
Ntp14
Rp15
(dp16
S'lastname'
p17
S'goodman'
p18
sS'is_allocated'
p19
I01
sS'living_space'
p20
I00
sS'uid'
p21
S'sg7'
p22
sS'firstname'
p23
S'sunday'
p24
sbag1
(g13
g3
Ntp25
Rp26
(dp27
g17
S'WALTERS'
p28
sg19
I01
sg20
I00
sg21
S'DW3'
p29
sg23
S'DOMINIC'
p30
sbag1
(g13
g3
Ntp31
Rp32
(dp33
g17
S'RILEY'
p34
sg19
I01
sg20
I00
sg21
S'LR3'
p35
sg23
S'LEIGH'
p36
sbag1
(g13
g3
Ntp37
Rp38
(dp39
g17
S'McGUIRE'
p40
sg19
I01
sg20
I00
sg21
S'KM7'
p41
sg23
S'KELLY'
p42
sbasbag1
(csrc.livingspace
LivingSpace
p43
g3
Ntp44
Rp45
(dp46
S'is_filled'
p47
I01
sg7
S'cedar is occupied'
p48
sg9
S'cedar'
p49
sg11
(lp50
g1
(csrc.fellow
Fellow
p51
g3
Ntp52
Rp53
(dp54
g17
S'Nwuguru'
p55
sg19
I01
sg20
I01
sg21
S'sN5'
p56
sg23
S'suny'
p57
sbag1
(g51
g3
Ntp58
Rp59
(dp60
g17
S'SULE'
p61
sg19
I01
sg20
I01
sg21
S'OS5'
p62
sg23
S'OLUWAFEMI'
p63
sbag1
(g51
g3
Ntp64
Rp65
(dp66
g17
S'PATTERSON'
p67
sg19
I01
sg20
I01
sg21
S'SP8'
p68
sg23
S'SIMON'
p69
sbag1
(g51
g3
Ntp70
Rp71
(dp72
g17
S'LAWRENCE'
p73
sg19
I01
sg20
I01
sg21
S'ML6'
p74
sg23
S'MARI'
p75
sbasbag1
(g43
g3
Ntp76
Rp77
(dp78
g9
S'oaks'
p79
sg11
(lp80
g1
(g51
g3
Ntp81
Rp82
(dp83
g17
S'LOPEZ'
p84
sg19
I01
sg20
I01
sg21
S'TL2'
p85
sg23
S'TANA'
p86
sbasbag1
(g2
g3
Ntp87
Rp88
(dp89
g9
S'shrubs'
p90
sg11
(lp91
sba.