(lp0
ccopy_reg
_reconstructor
p1
(csrc.livingspace
LivingSpace
p2
c__builtin__
object
p3
Ntp4
Rp5
(dp6
S'is_filled'
p7
I00
sS'error_message'
p8
S''
p9
sS'name'
p10
S'CEDAR'
p11
sS'people'
p12
(lp13
g1
(csrc.fellow
Fellow
p14
g3
Ntp15
Rp16
(dp17
S'date_time'
p18
V2016-04-27 21:20:42.018598
p19
sS'living_space'
p20
I01
sS'uid'
p21
S'SN3'
p22
sS'firstname'
p23
S'SUNDAY'
p24
sS'lastname'
p25
S'NWUGURU'
p26
sS'is_allocated'
p27
I00
sS'assigned_room'
p28
VCEDAR
p29
sbasbag1
(csrc.office
Office
p30
g3
Ntp31
Rp32
(dp33
g7
I00
sg8
g9
sg10
S'IROKO'
p34
sg12
(lp35
sbag1
(g2
g3
Ntp36
Rp37
(dp38
g7
I00
sg8
g9
sg10
S'SHRUBS'
p39
sg12
(lp40
sbag1
(g2
g3
Ntp41
Rp42
(dp43
g7
I00
sg8
g9
sg10
S'MAHOGANY'
p44
sg12
(lp45
sbag1
(g2
g3
Ntp46
Rp47
(dp48
g7
I00
sg8
g9
sg10
S'OS'
p49
sg12
(lp50
sba.