(lp0
ccopy_reg
_reconstructor
p1
(csrc.livingspace
LivingSpace
p2
c__builtin__
object
p3
Ntp4
Rp5
(dp6
S'name'
p7
S'IROKO'
p8
sS'people'
p9
(lp10
g1
(csrc.fellow
Fellow
p11
g3
Ntp12
Rp13
(dp14
S'lastname'
p15
S'SULE'
p16
sS'assigned_room'
p17
VIROKO
p18
sS'living_space'
p19
I01
sS'uid'
p20
S'OS1'
p21
sS'firstname'
p22
S'OLUWAFEMI'
p23
sbag1
(g11
g3
Ntp24
Rp25
(dp26
g15
S'LAWRENCE'
p27
sg17
VIROKO
p28
sg19
I01
sg20
S'ML8'
p29
sg22
S'MARI'
p30
sbag1
(g11
g3
Ntp31
Rp32
(dp33
g15
S'LOPEZ'
p34
sg17
VIROKO
p35
sg19
I01
sg20
S'TL8'
p36
sg22
S'TANA'
p37
sbasbag1
(g2
g3
Ntp38
Rp39
(dp40
g7
S'CEDAR'
p41
sg9
(lp42
g1
(g11
g3
Ntp43
Rp44
(dp45
g15
S'PATTERSON'
p46
sg17
VCEDAR
p47
sg19
I01
sg20
S'SP4'
p48
sg22
S'SIMON'
p49
sbasbag1
(csrc.office
Office
p50
g3
Ntp51
Rp52
(dp53
g7
S'SHRUBS'
p54
sg9
(lp55
g1
(csrc.staff
Staff
p56
g3
Ntp57
Rp58
(dp59
g15
S'WALTERS'
p60
sg17
VSHRUBS
p61
sg19
I00
sg20
S'DW8'
p62
sg22
S'DOMINIC'
p63
sbag1
(g56
g3
Ntp64
Rp65
(dp66
g15
S'RILEY'
p67
sg17
VSHRUBS
p68
sg19
I00
sg20
S'LR6'
p69
sg22
S'LEIGH'
p70
sbag1
(g56
g3
Ntp71
Rp72
(dp73
g15
S'McGUIRE'
p74
sg17
VSHRUBS
p75
sg19
I00
sg20
S'KM5'
p76
sg22
S'KELLY'
p77
sbasbag1
(g50
g3
Ntp78
Rp79
(dp80
g7
S'OAKS'
p81
sg9
(lp82
sbag1
(g2
g3
Ntp83
Rp84
(dp85
g7
S'OCHEBE'
p86
sg9
(lp87
sba.