(lp0
ccopy_reg
_reconstructor
p1
(csrc.office
Office
p2
c__builtin__
object
p3
Ntp4
Rp5
(dp6
S'is_filled'
p7
I00
sS'error_message'
p8
S'SUNDAY NAD cannot be allocated to FLASH'
p9
sS'name'
p10
S'FLASH'
p11
sS'people'
p12
(lp13
g1
(csrc.fellow
Fellow
p14
g3
Ntp15
Rp16
(dp17
S'living_space'
p18
I01
sS'uid'
p19
S'JO16'
p20
sS'firstname'
p21
S'JAME'
p22
sS'lastname'
p23
S'OKORE'
p24
sS'is_allocated'
p25
I01
sS'assigned_room'
p26
(dp27
S'LIVINGSPACE'
p28
S'BAT'
p29
sS'OFFICE'
p30
g11
ssbasbag1
(csrc.livingspace
LivingSpace
p31
g3
Ntp32
Rp33
(dp34
g7
I00
sg8
S'SUNDAY GOODMAN cannot be allocated to BAT'
p35
sg10
S'BAT'
p36
sg12
(lp37
g1
(g14
g3
Ntp38
Rp39
(dp40
S'date_time'
p41
V2016-04-29 18:34:22.156828
p42
sg18
I01
sg19
S'SN71'
p43
sg21
S'SUNDAY'
p44
sg23
S'NAK'
p45
sg25
I01
sg26
(dp46
S'LIVINGSPACE'
p47
g36
sS'OFFICE'
p48
S'CAP'
p49
ssbag1
(g14
g3
Ntp50
Rp51
(dp52
g41
V2016-04-29 18:34:22.154350
p53
sg18
I01
sg19
S'SG88'
p54
sg21
S'SUNDAY'
p55
sg23
S'GOODMAN'
p56
sg25
I01
sg26
(dp57
S'LIVINGSPACE'
p58
g36
sS'OFFICE'
p59
g11
ssbag1
(g14
g3
Ntp60
Rp61
(dp62
g18
I01
sg19
S'MT27'
p63
sg21
S'MONDAY'
p64
sg23
S'TOCKY2'
p65
sg25
I01
sg26
(dp66
S'LIVINGSPACE'
p67
g36
sS'OFFICE'
p68
g11
ssbag1
(g14
g3
Ntp69
Rp70
(dp71
g18
I01
sg19
S'JO16'
p72
sg21
S'JAME'
p73
sg23
S'OKORE'
p74
sg25
I01
sg26
(dp75
S'LIVINGSPACE'
p76
g36
sS'OFFICE'
p77
S'CAP'
p78
ssbasbag1
(g2
g3
Ntp79
Rp80
(dp81
g7
I00
sg8
S'SUNDAY NAD cannot be allocated to CAP'
p82
sg10
g78
sg12
(lp83
g1
(g14
g3
Ntp84
Rp85
(dp86
g41
V2016-04-29 18:34:22.156828
p87
sg18
I01
sg19
S'SN81'
p88
sg21
S'SUNDAY'
p89
sg23
S'NAK'
p90
sg25
I01
sg26
(dp91
S'LIVINGSPACE'
p92
S'BAT'
p93
sS'OFFICE'
p94
g78
ssbag1
(g14
g3
Ntp95
Rp96
(dp97
g18
I00
sg19
S'MF69'
p98
sg21
S'MONDAY'
p99
sg23
S'FOCKY2'
p100
sg25
I01
sg26
(dp101
S'OFFICE'
p102
g78
ssbag1
(csrc.staff
Staff
p103
g3
Ntp104
Rp105
(dp106
g18
I00
sg19
S'FO61'
p107
sg21
S'FRIDAY'
p108
sg23
S'OPOKE'
p109
sg25
I01
sg26
(dp110
S'OFFICE'
p111
g78
ssbasbag1
(g31
g3
Ntp112
Rp113
(dp114
g7
I00
sg8
S'SUNDAY GOODMAN cannot be allocated to BASH'
p115
sg10
S'BASH'
p116
sg12
(lp117
sba.