(lp0
ccopy_reg
_reconstructor
p1
(csrc.livingspace
LivingSpace
p2
c__builtin__
object
p3
Ntp4
Rp5
(dp6
S'name'
p7
S'IROKO'
p8
sS'people'
p9
(lp10
g1
(csrc.fellow
Fellow
p11
g3
Ntp12
Rp13
(dp14
S'date_time'
p15
V2016-04-25 16:00:45.902559
p16
sS'living_space'
p17
I01
sS'uid'
p18
S'OS4'
p19
sS'firstname'
p20
S'OLUWAFEMI'
p21
sS'lastname'
p22
S'SULE'
p23
sS'assigned_room'
p24
VIROKO
p25
sbag1
(g11
g3
Ntp26
Rp27
(dp28
g15
V2016-04-25 16:00:45.913320
p29
sg17
I01
sg18
S'ML7'
p30
sg20
S'MARI'
p31
sg22
S'LAWRENCE'
p32
sg24
VIROKO
p33
sbag1
(g11
g3
Ntp34
Rp35
(dp36
g15
V2016-04-25 16:00:45.921010
p37
sg17
I01
sg18
S'TL1'
p38
sg20
S'TANA'
p39
sg22
S'LOPEZ'
p40
sg24
VIROKO
p41
sbag1
(g11
g3
Ntp42
Rp43
(dp44
g15
V2016-04-25 16:00:45.945443
p45
sg17
I01
sg18
S'SG8'
p46
sg20
S'SUNDAY'
p47
sg22
S'GOODMAN'
p48
sg24
VIROKO
p49
sbasbag1
(g2
g3
Ntp50
Rp51
(dp52
g7
S'CEDAR'
p53
sg9
(lp54
g1
(g11
g3
Ntp55
Rp56
(dp57
g15
V2016-04-25 16:00:45.910725
p58
sg17
I01
sg18
S'SP3'
p59
sg20
S'SIMON'
p60
sg22
S'PATTERSON'
p61
sg24
VCEDAR
p62
sbag1
(g11
g3
Ntp63
Rp64
(dp65
g15
V2016-04-25 16:00:45.941578
p66
sg17
I01
sg18
S'LE9'
p67
sg20
S'LION'
p68
sg22
S'ENI'
p69
sg24
VCEDAR
p70
sbasbag1
(csrc.office
Office
p71
g3
Ntp72
Rp73
(dp74
g7
S'SHRUBS'
p75
sg9
(lp76
g1
(csrc.staff
Staff
p77
g3
Ntp78
Rp79
(dp80
g15
V2016-04-25 16:00:45.906811
p81
sg17
I00
sg18
S'DW6'
p82
sg20
S'DOMINIC'
p83
sg22
S'WALTERS'
p84
sg24
VSHRUBS
p85
sbag1
(g77
g3
Ntp86
Rp87
(dp88
g15
V2016-04-25 16:00:45.917463
p89
sg17
I00
sg18
S'LR4'
p90
sg20
S'LEIGH'
p91
sg22
S'RILEY'
p92
sg24
VSHRUBS
p93
sbag1
(g77
g3
Ntp94
Rp95
(dp96
g15
V2016-04-25 16:00:45.924922
p97
sg17
I00
sg18
S'KM6'
p98
sg20
S'KELLY'
p99
sg22
S'McGUIRE'
p100
sg24
VSHRUBS
p101
sbasbag1
(g71
g3
Ntp102
Rp103
(dp104
g7
S'OAKS'
p105
sg9
(lp106
sbag1
(g2
g3
Ntp107
Rp108
(dp109
g7
S'OCHEBE'
p110
sg9
(lp111
g1
(g11
g3
Ntp112
Rp113
(dp114
g15
V2016-04-25 16:00:45.928839
p115
sg17
I01
sg18
S'SA5'
p116
sg20
S'SEYI'
p117
sg22
S'ADEKOYA'
p118
sg24
VOCHEBE
p119
sbag1
(g11
g3
Ntp120
Rp121
(dp122
g15
V2016-04-25 16:00:45.932921
p123
sg17
I01
sg18
S'JA1'
p124
sg20
S'JOHN'
p125
sg22
S'ADEAYE'
p126
sg24
VOCHEBE
p127
sbasbag1
(g71
g3
Ntp128
Rp129
(dp130
g7
S'WILLOW'
p131
sg9
(lp132
sbag1
(g71
g3
Ntp133
Rp134
(dp135
g7
S'IROKO'
p136
sg9
(lp137
sbag1
(g2
g3
Ntp138
Rp139
(dp140
g7
S'UCHE'
p141
sg9
(lp142
g1
(g11
g3
Ntp143
Rp144
(dp145
g17
I01
sg18
S'MG3'
p146
sg20
S'MONDAYE'
p147
sg22
S'GLORY'
p148
sS'is_allocated'
p149
I01
sg24
g141
sbasba.