(lp0
ccopy_reg
_reconstructor
p1
(csrc.office
Office
p2
c__builtin__
object
p3
Ntp4
Rp5
(dp6
S'is_filled'
p7
I00
sS'error_message'
p8
S''
p9
sS'name'
p10
S'FLASH'
p11
sS'people'
p12
(lp13
g1
(csrc.fellow
Fellow
p14
g3
Ntp15
Rp16
(dp17
S'date_time'
p18
V2016-04-30 18:31:36.072712
p19
sS'living_space'
p20
I00
sS'uid'
p21
S'LA15'
p22
sS'firstname'
p23
S'LATIFA'
p24
sS'lastname'
p25
S'AHMEND'
p26
sS'is_allocated'
p27
I01
sS'assigned_room'
p28
(dp29
S'LIVINGSPACE'
p30
S'BAT'
p31
sS'OFFICE'
p32
g11
ssbag1
(g14
g3
Ntp33
Rp34
(dp35
g18
V2016-04-30 18:31:36.103774
p36
sg20
I01
sg21
S'MT99'
p37
sg23
S'MONDAY'
p38
sg25
S'TOCKY2'
p39
sg27
I01
sg28
(dp40
S'LIVINGSPACE'
p41
S'BAT'
p42
sS'OFFICE'
p43
g11
ssbag1
(g14
g3
Ntp44
Rp45
(dp46
g18
V2016-04-30 18:31:36.112208
p47
sg20
I01
sg21
S'JO03'
p48
sg23
S'JAME'
p49
sg25
S'OKORE'
p50
sg27
I01
sg28
(dp51
S'LIVINGSPACE'
p52
S'BAT'
p53
sS'OFFICE'
p54
g11
ssbasbag1
(csrc.livingspace
LivingSpace
p55
g3
Ntp56
Rp57
(dp58
g7
I00
sg8
g9
sg10
S'BAT'
p59
sg12
(lp60
g1
(g14
g3
Ntp61
Rp62
(dp63
g18
V2016-04-30 18:31:36.066134
p64
sg20
I01
sg21
S'SN24'
p65
sg23
S'SUNDAY'
p66
sg25
S'NAK'
p67
sg27
I01
sg28
(dp68
S'LIVINGSPACE'
p69
g59
sS'OFFICE'
p70
S'CAP'
p71
ssbag1
(g14
g3
Ntp72
Rp73
(dp74
g18
V2016-04-30 18:31:36.072712
p75
sg20
I00
sg21
S'LA87'
p76
sg23
S'LATIFA'
p77
sg25
S'AHMEND'
p78
sg27
I01
sg28
(dp79
S'LIVINGSPACE'
p80
g59
sS'OFFICE'
p81
S'FLASH'
p82
ssbag1
(g14
g3
Ntp83
Rp84
(dp85
g18
V2016-04-30 18:31:36.103774
p86
sg20
I01
sg21
S'MT17'
p87
sg23
S'MONDAY'
p88
sg25
S'TOCKY2'
p89
sg27
I01
sg28
(dp90
S'LIVINGSPACE'
p91
g59
sS'OFFICE'
p92
S'FLASH'
p93
ssbag1
(g14
g3
Ntp94
Rp95
(dp96
g18
V2016-04-30 18:31:36.112208
p97
sg20
I01
sg21
S'JO36'
p98
sg23
S'JAME'
p99
sg25
S'OKORE'
p100
sg27
I01
sg28
(dp101
S'LIVINGSPACE'
p102
g59
sS'OFFICE'
p103
S'FLASH'
p104
ssbasbag1
(g2
g3
Ntp105
Rp106
(dp107
g7
I00
sg8
g9
sg10
S'CAP'
p108
sg12
(lp109
g1
(g14
g3
Ntp110
Rp111
(dp112
g18
V2016-04-30 18:31:36.066134
p113
sg20
I01
sg21
S'SN80'
p114
sg23
S'SUNDAY'
p115
sg25
S'NAK'
p116
sg27
I01
sg28
(dp117
S'LIVINGSPACE'
p118
S'BAT'
p119
sS'OFFICE'
p120
g108
ssbag1
(csrc.staff
Staff
p121
g3
Ntp122
Rp123
(dp124
g18
V2016-04-30 18:31:36.069319
p125
sg20
I00
sg21
S'SN95'
p126
sg23
S'SUNDAY'
p127
sg25
S'NAD'
p128
sg27
I01
sg28
(dp129
S'OFFICE'
p130
g108
ssbag1
(g14
g3
Ntp131
Rp132
(dp133
g18
V2016-04-30 18:31:36.108048
p134
sg20
I00
sg21
S'MF08'
p135
sg23
S'MONDAY'
p136
sg25
S'FOCKY2'
p137
sg27
I01
sg28
(dp138
S'OFFICE'
p139
g108
ssbag1
(g121
g3
Ntp140
Rp141
(dp142
g18
V2016-04-30 18:31:36.110089
p143
sg20
I00
sg21
S'FO33'
p144
sg23
S'FRIDAY'
p145
sg25
S'OPOKE'
p146
sg27
I01
sg28
(dp147
S'OFFICE'
p148
g108
ssbasbag1
(g55
g3
Ntp149
Rp150
(dp151
g7
I00
sg8
g9
sg10
S'BASH'
p152
sg12
(lp153
sba.