(lp0
ccopy_reg
_reconstructor
p1
(csrc.livingspace
LivingSpace
p2
c__builtin__
object
p3
Ntp4
Rp5
(dp6
S'is_filled'
p7
I00
sS'error_message'
p8
S''
p9
sS'name'
p10
S'TESTROOM 1'
p11
sS'people'
p12
(lp13
g1
(csrc.fellow
Fellow
p14
g3
Ntp15
Rp16
(dp17
S'living_space'
p18
I01
sS'uid'
p19
S'OS68'
p20
sS'firstname'
p21
S'OLUWAFEMI'
p22
sS'lastname'
p23
S'SULE'
p24
sS'is_allocated'
p25
I01
sS'assigned_room'
p26
(dp27
S'LIVINGSPACE'
p28
g11
sS'OFFICE'
p29
S'TESTROOM 2'
p30
ssbasbag1
(csrc.office
Office
p31
g3
Ntp32
Rp33
(dp34
g7
I00
sg8
g9
sg10
g30
sg12
(lp35
g16
ag1
(csrc.staff
Staff
p36
g3
Ntp37
Rp38
(dp39
g18
I00
sg19
S'DW70'
p40
sg21
S'DOMINIC'
p41
sg23
S'WALTERS'
p42
sg25
I01
sg26
(dp43
g29
g30
ssbasbag1
(g2
g3
Ntp44
Rp45
(dp46
g7
I00
sg8
g9
sg10
S'TESTROOM 3'
p47
sg12
(lp48
sba.