(lp0
ccopy_reg
_reconstructor
p1
(csrc.office
Office
p2
c__builtin__
object
p3
Ntp4
Rp5
(dp6
S'is_filled'
p7
I00
sS'error_message'
p8
S''
p9
sS'name'
p10
S'FLASH'
p11
sS'people'
p12
(lp13
g1
(csrc.fellow
Fellow
p14
g3
Ntp15
Rp16
(dp17
S'date_time'
p18
V2016-04-29 18:34:22.154350
p19
sS'living_space'
p20
I01
sS'uid'
p21
S'SG76'
p22
sS'firstname'
p23
S'SUNDAY'
p24
sS'lastname'
p25
S'GOODMAN'
p26
sS'is_allocated'
p27
I01
sS'assigned_room'
p28
(dp29
S'LIVINGSPACE'
p30
S'BASH'
p31
sS'OFFICE'
p32
g11
ssbasbag1
(csrc.livingspace
LivingSpace
p33
g3
Ntp34
Rp35
(dp36
g7
I00
sg8
g9
sg10
S'BAT'
p37
sg12
(lp38
g1
(g14
g3
Ntp39
Rp40
(dp41
g18
V2016-04-29 18:34:22.156828
p42
sg20
I01
sg21
S'SN71'
p43
sg23
S'SUNDAY'
p44
sg25
S'NAK'
p45
sg27
I01
sg28
(dp46
S'LIVINGSPACE'
p47
g37
sS'OFFICE'
p48
S'CAP'
p49
ssbasbag1
(g2
g3
Ntp50
Rp51
(dp52
g7
I00
sg8
g9
sg10
S'CAP'
p53
sg12
(lp54
g1
(g14
g3
Ntp55
Rp56
(dp57
g18
V2016-04-29 18:34:22.156828
p58
sg20
I01
sg21
S'SN81'
p59
sg23
S'SUNDAY'
p60
sg25
S'NAK'
p61
sg27
I01
sg28
(dp62
S'LIVINGSPACE'
p63
S'BAT'
p64
sS'OFFICE'
p65
g53
ssbag1
(csrc.staff
Staff
p66
g3
Ntp67
Rp68
(dp69
g18
V2016-04-29 18:34:22.160407
p70
sg20
I00
sg21
S'SN08'
p71
sg23
S'SUNDAY'
p72
sg25
S'NAD'
p73
sg27
I01
sg28
(dp74
S'OFFICE'
p75
g53
ssbasbag1
(g33
g3
Ntp76
Rp77
(dp78
g7
I00
sg8
g9
sg10
S'BASH'
p79
sg12
(lp80
g1
(g14
g3
Ntp81
Rp82
(dp83
g18
V2016-04-29 18:34:22.154350
p84
sg20
I01
sg21
S'SG71'
p85
sg23
S'SUNDAY'
p86
sg25
S'GOODMAN'
p87
sg27
I01
sg28
(dp88
S'LIVINGSPACE'
p89
g79
sS'OFFICE'
p90
S'FLASH'
p91
ssbasba.