(lp0
ccopy_reg
_reconstructor
p1
(csrc.livingspace
LivingSpace
p2
c__builtin__
object
p3
Ntp4
Rp5
(dp6
S'name'
p7
S'IROKO'
p8
sS'people'
p9
(lp10
g1
(csrc.fellow
Fellow
p11
g3
Ntp12
Rp13
(dp14
S'date_time'
p15
V2016-04-25 16:00:45.902559
p16
sS'living_space'
p17
I01
sS'uid'
p18
S'OS0'
p19
sS'firstname'
p20
S'OLUWAFEMI'
p21
sS'lastname'
p22
S'SULE'
p23
sS'assigned_room'
p24
VIROKO
p25
sbag1
(g11
g3
Ntp26
Rp27
(dp28
g15
V2016-04-25 16:00:45.913320
p29
sg17
I01
sg18
S'ML6'
p30
sg20
S'MARI'
p31
sg22
S'LAWRENCE'
p32
sg24
VIROKO
p33
sbag1
(g11
g3
Ntp34
Rp35
(dp36
g15
V2016-04-25 16:00:45.921010
p37
sg17
I01
sg18
S'TL2'
p38
sg20
S'TANA'
p39
sg22
S'LOPEZ'
p40
sg24
VIROKO
p41
sbag1
(g11
g3
Ntp42
Rp43
(dp44
g15
V2016-04-25 16:00:45.945443
p45
sg17
I01
sg18
S'SG3'
p46
sg20
S'SUNDAY'
p47
sg22
S'GOODMAN'
p48
sg24
VIROKO
p49
sbasbag1
(g2
g3
Ntp50
Rp51
(dp52
g7
S'CEDAR'
p53
sg9
(lp54
g1
(g11
g3
Ntp55
Rp56
(dp57
g15
V2016-04-25 16:00:45.910725
p58
sg17
I01
sg18
S'SP7'
p59
sg20
S'SIMON'
p60
sg22
S'PATTERSON'
p61
sg24
VCEDAR
p62
sbag1
(g11
g3
Ntp63
Rp64
(dp65
g15
V2016-04-25 16:00:45.941578
p66
sg17
I01
sg18
S'LE8'
p67
sg20
S'LION'
p68
sg22
S'ENI'
p69
sg24
VCEDAR
p70
sbag1
(g11
g3
Ntp71
Rp72
(dp73
g17
I01
sg18
S'MG3'
p74
sg20
S'MONDAYE'
p75
sg22
S'GLORY2'
p76
sS'is_allocated'
p77
I01
sg24
g53
sbasbag1
(csrc.office
Office
p78
g3
Ntp79
Rp80
(dp81
S'error_message'
p82
S'MONDAY GLORY2 cannot be allocated to SHRUBS'
p83
sg7
S'SHRUBS'
p84
sg9
(lp85
g1
(csrc.staff
Staff
p86
g3
Ntp87
Rp88
(dp89
g15
V2016-04-25 16:00:45.906811
p90
sg17
I00
sg18
S'DW0'
p91
sg20
S'DOMINIC'
p92
sg22
S'WALTERS'
p93
sg24
VSHRUBS
p94
sbag1
(g86
g3
Ntp95
Rp96
(dp97
g15
V2016-04-25 16:00:45.917463
p98
sg17
I00
sg18
S'LR8'
p99
sg20
S'LEIGH'
p100
sg22
S'RILEY'
p101
sg24
VSHRUBS
p102
sbag1
(g86
g3
Ntp103
Rp104
(dp105
g15
V2016-04-25 16:00:45.924922
p106
sg17
I00
sg18
S'KM5'
p107
sg20
S'KELLY'
p108
sg22
S'McGUIRE'
p109
sg24
VSHRUBS
p110
sbasbag1
(g78
g3
Ntp111
Rp112
(dp113
g7
S'OAKS'
p114
sg9
(lp115
sbag1
(g2
g3
Ntp116
Rp117
(dp118
g7
S'OCHEBE'
p119
sg9
(lp120
g1
(g11
g3
Ntp121
Rp122
(dp123
g15
V2016-04-25 16:00:45.928839
p124
sg17
I01
sg18
S'SA6'
p125
sg20
S'SEYI'
p126
sg22
S'ADEKOYA'
p127
sg24
VOCHEBE
p128
sbag1
(g11
g3
Ntp129
Rp130
(dp131
g15
V2016-04-25 16:00:45.932921
p132
sg17
I01
sg18
S'JA1'
p133
sg20
S'JOHN'
p134
sg22
S'ADEAYE'
p135
sg24
VOCHEBE
p136
sbasbag1
(g78
g3
Ntp137
Rp138
(dp139
g82
S'SUNDAY GLORY cannot be allocated to WILLOW'
p140
sg7
S'WILLOW'
p141
sg9
(lp142
sbag1
(g78
g3
Ntp143
Rp144
(dp145
g82
S'MONDAY GDMAN cannot be allocated to IROKO'
p146
sg7
S'IROKO'
p147
sg9
(lp148
sbag1
(g2
g3
Ntp149
Rp150
(dp151
g7
S'UCHE'
p152
sg9
(lp153
sba.