(lp0
ccopy_reg
_reconstructor
p1
(csrc.livingspace
LivingSpace
p2
c__builtin__
object
p3
Ntp4
Rp5
(dp6
S'is_filled'
p7
I01
sS'error_message'
p8
S'KELLY McGUIRE cannot be allocated to IROKO'
p9
sS'name'
p10
S'IROKO'
p11
sS'people'
p12
(lp13
g1
(csrc.fellow
Fellow
p14
g3
Ntp15
Rp16
(dp17
S'living_space'
p18
I01
sS'uid'
p19
S'EJ0'
p20
sS'firstname'
p21
S'ERIKA'
p22
sS'lastname'
p23
S'JOSEPH'
p24
sS'is_allocated'
p25
I01
sS'assigned_room'
p26
g11
sbag1
(g14
g3
Ntp27
Rp28
(dp29
g18
I01
sg19
S'OS4'
p30
sg21
S'OLUWAFEMI'
p31
sg23
S'SULE'
p32
sg25
I01
sg26
g11
sbag1
(g14
g3
Ntp33
Rp34
(dp35
g18
I01
sg19
S'SP0'
p36
sg21
S'SIMON'
p37
sg23
S'PATTERSON'
p38
sg25
I01
sg26
g11
sbag1
(g14
g3
Ntp39
Rp40
(dp41
g18
I01
sg19
S'ML4'
p42
sg21
S'MARI'
p43
sg23
S'LAWRENCE'
p44
sg25
I01
sg26
g11
sbasbag1
(csrc.office
Office
p45
g3
Ntp46
Rp47
(dp48
g8
S'TANA LOPEZ cannot be allocated to CEDAR'
p49
sg10
S'CEDAR'
p50
sg12
(lp51
g1
(csrc.staff
Staff
p52
g3
Ntp53
Rp54
(dp55
g18
I00
sg19
S'BM7'
p56
sg21
S'BUKOLA'
p57
sg23
S'MAKINWA'
p58
sg25
I01
sg26
g50
sbag1
(g52
g3
Ntp59
Rp60
(dp61
g18
I00
sg19
S'DW7'
p62
sg21
S'DOMINIC'
p63
sg23
S'WALTERS'
p64
sg25
I01
sg26
g50
sbag1
(g52
g3
Ntp65
Rp66
(dp67
g18
I00
sg19
S'LR3'
p68
sg21
S'LEIGH'
p69
sg23
S'RILEY'
p70
sg25
I01
sg26
g50
sbag1
(g52
g3
Ntp71
Rp72
(dp73
g18
I00
sg19
S'KM8'
p74
sg21
S'KELLY'
p75
sg23
S'McGUIRE'
p76
sg25
I01
sg26
g50
sbasbag1
(g2
g3
Ntp77
Rp78
(dp79
g10
S'SHRUBS'
p80
sg12
(lp81
g1
(g14
g3
Ntp82
Rp83
(dp84
g18
I01
sg19
S'TL4'
p85
sg21
S'TANA'
p86
sg23
S'LOPEZ'
p87
sg25
I01
sg26
g80
sbasba.